ARM GAS  /tmp/cc98xNSC.s 			page 1


   1              		.syntax unified
   2              		.cpu cortex-m4
   3              		.fpu softvfp
   4              		.eabi_attribute 20, 1
   5              		.eabi_attribute 21, 1
   6              		.eabi_attribute 23, 3
   7              		.eabi_attribute 24, 1
   8              		.eabi_attribute 25, 1
   9              		.eabi_attribute 26, 1
  10              		.eabi_attribute 30, 2
  11              		.eabi_attribute 34, 1
  12              		.eabi_attribute 18, 4
  13              		.thumb
  14              		.file	"board.c"
  15              		.text
  16              	.Ltext0:
  17              		.cfi_sections	.debug_frame
  18              		.section	.text.__early_init,"ax",%progbits
  19              		.align	2
  20              		.p2align 4,,15
  21              		.global	__early_init
  22              		.thumb
  23              		.thumb_func
  24              		.type	__early_init, %function
  25              	__early_init:
  26              	.LFB118:
  27              		.file 1 "../../../boards/NONSTANDARD_STM32F4_BARTHESS1/board.c"
  28              		.loc 1 45 0
  29              		.cfi_startproc
  30              		@ args = 0, pretend = 0, frame = 0
  31              		@ frame_needed = 0, uses_anonymous_args = 0
  32              		@ link register save eliminated.
  33              		.loc 1 47 0
  34 0000 FFF7FEBF 		b	stm32_clock_init
  35              	.LVL0:
  36              		.cfi_endproc
  37              	.LFE118:
  38              		.size	__early_init, .-__early_init
  39 0004 AFF30080 		.section	.text.boardInit,"ax",%progbits
  39      AFF30080 
  39      AFF30080 
  40              		.align	2
  41              		.p2align 4,,15
  42              		.global	boardInit
  43              		.thumb
  44              		.thumb_func
  45              		.type	boardInit, %function
  46              	boardInit:
  47              	.LFB119:
  48              		.loc 1 53 0
  49              		.cfi_startproc
  50              		@ args = 0, pretend = 0, frame = 0
  51              		@ frame_needed = 0, uses_anonymous_args = 0
  52              		@ link register save eliminated.
  53 0000 7047     		bx	lr
  54              		.cfi_endproc
  55              	.LFE119:
ARM GAS  /tmp/cc98xNSC.s 			page 2


  56              		.size	boardInit, .-boardInit
  57 0002 00BFAFF3 		.section	.text.sdc_lld_is_card_inserted,"ax",%progbits
  57      0080AFF3 
  57      0080AFF3 
  57      0080
  58              		.align	2
  59              		.p2align 4,,15
  60              		.global	sdc_lld_is_card_inserted
  61              		.thumb
  62              		.thumb_func
  63              		.type	sdc_lld_is_card_inserted, %function
  64              	sdc_lld_is_card_inserted:
  65              	.LFB120:
  66              		.loc 1 64 0
  67              		.cfi_startproc
  68              		@ args = 0, pretend = 0, frame = 0
  69              		@ frame_needed = 0, uses_anonymous_args = 0
  70              		@ link register save eliminated.
  71              	.LVL1:
  72              		.loc 1 67 0
  73 0000 034B     		ldr	r3, .L4
  74 0002 1869     		ldr	r0, [r3, #16]
  75              	.LVL2:
  76 0004 C0F3C000 		ubfx	r0, r0, #3, #1
  77              		.loc 1 68 0
  78 0008 80F00100 		eor	r0, r0, #1
  79 000c 7047     		bx	lr
  80              	.L5:
  81 000e 00BF     		.align	2
  82              	.L4:
  83 0010 00100240 		.word	1073876992
  84              		.cfi_endproc
  85              	.LFE120:
  86              		.size	sdc_lld_is_card_inserted, .-sdc_lld_is_card_inserted
  87 0014 AFF30080 		.section	.text.sdc_lld_is_write_protected,"ax",%progbits
  87      AFF30080 
  87      AFF30080 
  88              		.align	2
  89              		.p2align 4,,15
  90              		.global	sdc_lld_is_write_protected
  91              		.thumb
  92              		.thumb_func
  93              		.type	sdc_lld_is_write_protected, %function
  94              	sdc_lld_is_write_protected:
  95              	.LFB121:
  96              		.loc 1 78 0
  97              		.cfi_startproc
  98              		@ args = 0, pretend = 0, frame = 0
  99              		@ frame_needed = 0, uses_anonymous_args = 0
 100              		@ link register save eliminated.
 101              	.LVL3:
 102              		.loc 1 82 0
 103 0000 0020     		movs	r0, #0
 104              	.LVL4:
 105 0002 7047     		bx	lr
 106              		.cfi_endproc
 107              	.LFE121:
ARM GAS  /tmp/cc98xNSC.s 			page 3


 108              		.size	sdc_lld_is_write_protected, .-sdc_lld_is_write_protected
 109              		.global	pal_default_config
 110 0004 AFF30080 		.section	.rodata.pal_default_config,"a",%progbits
 110      AFF30080 
 110      AFF30080 
 111              		.align	2
 112              		.type	pal_default_config, %object
 113              		.size	pal_default_config, 252
 114              	pal_default_config:
 115 0000 AAAAA9AA 		.word	-1431721302
 116 0004 00000000 		.word	0
 117 0008 00000000 		.word	0
 118 000c 00550064 		.word	1677743360
 119 0010 00000000 		.word	0
 120 0014 77775555 		.word	1431664503
 121 0018 70A70A00 		.word	698224
 122 001c 8052A100 		.word	10572416
 123 0020 C00D0000 		.word	3520
 124 0024 C0000000 		.word	192
 125 0028 0A010055 		.word	1426063626
 126 002c C0010000 		.word	448
 127 0030 00000000 		.word	0
 128 0034 00440000 		.word	17408
 129 0038 FF0FAA02 		.word	44699647
 130 003c 00000000 		.word	0
 131 0040 00005501 		.word	22347776
 132 0044 00505501 		.word	22368256
 133 0048 00000000 		.word	0
 134 004c 00000000 		.word	0
 135 0050 CCCC0C00 		.word	838860
 136 0054 200000AA 		.word	-1442840544
 137 0058 00000000 		.word	0
 138 005c 10000000 		.word	16
 139 0060 100000AA 		.word	-1442840560
 140 0064 00000000 		.word	0
 141 0068 000C0000 		.word	3072
 142 006c 00002222 		.word	572653568
 143 0070 14058828 		.word	680002836
 144 0074 20000000 		.word	32
 145 0078 00000000 		.word	0
 146 007c 46A0AAA9 		.word	-1448435642
 147 0080 30000000 		.word	48
 148 0084 00000000 		.word	0
 149 0088 10101001 		.word	17829904
 150 008c 00000000 		.word	0
 151 0090 00000000 		.word	0
 152 0094 00000000 		.word	0
 153 0098 00000000 		.word	0
 154 009c 00000000 		.word	0
 155 00a0 00000000 		.word	0
 156 00a4 00000000 		.word	0
 157 00a8 00000000 		.word	0
 158 00ac 00000000 		.word	0
 159 00b0 00000000 		.word	0
 160 00b4 00000000 		.word	0
 161 00b8 00000000 		.word	0
 162 00bc 00000000 		.word	0
ARM GAS  /tmp/cc98xNSC.s 			page 4


 163 00c0 00000000 		.word	0
 164 00c4 00000000 		.word	0
 165 00c8 00000000 		.word	0
 166 00cc 00000000 		.word	0
 167 00d0 00000000 		.word	0
 168 00d4 00000000 		.word	0
 169 00d8 00000000 		.word	0
 170 00dc 00000000 		.word	0
 171 00e0 00000000 		.word	0
 172 00e4 00000000 		.word	0
 173 00e8 00000000 		.word	0
 174 00ec 00000000 		.word	0
 175 00f0 00000000 		.word	0
 176 00f4 00000000 		.word	0
 177 00f8 00000000 		.word	0
 178              		.text
 179              	.Letext0:
 180              		.file 2 "/usr/arm-none-eabi/include/machine/_default_types.h"
 181              		.file 3 "/usr/arm-none-eabi/include/stdint.h"
 182              		.file 4 "../../../os/ports/GCC/ARMCMx/chtypes.h"
 183              		.file 5 "../../../os/kernel/include/chlists.h"
 184              		.file 6 "../../../os/kernel/include/chthreads.h"
 185              		.file 7 "../../../os/ports/GCC/ARMCMx/chcore_v7m.h"
 186              		.file 8 "../../../os/kernel/include/chmtx.h"
 187              		.file 9 "../../../os/hal/platforms/STM32F4xx/stm32f4xx.h"
 188              		.file 10 "../../../os/hal/platforms/STM32F4xx/stm32_dma.h"
 189              		.file 11 "../../../os/hal/include/io_block.h"
 190              		.file 12 "../../../os/hal/platforms/STM32/GPIOv2/pal_lld.h"
 191              		.file 13 "../../../os/hal/platforms/STM32/sdc_lld.h"
 192              		.file 14 "../../../os/ports/common/ARMCMx/CMSIS/include/core_cm4.h"
 193              		.file 15 "../../../os/hal/platforms/STM32F4xx/hal_lld.h"