ARM GAS  /tmp/ccRn3m4s.s 			page 1


   1              		.syntax unified
   2              		.cpu cortex-m4
   3              		.fpu softvfp
   4              		.eabi_attribute 20, 1
   5              		.eabi_attribute 21, 1
   6              		.eabi_attribute 23, 3
   7              		.eabi_attribute 24, 1
   8              		.eabi_attribute 25, 1
   9              		.eabi_attribute 26, 1
  10              		.eabi_attribute 30, 2
  11              		.eabi_attribute 34, 1
  12              		.eabi_attribute 18, 4
  13              		.thumb
  14              		.file	"evtimer.c"
  15              		.text
  16              	.Ltext0:
  17              		.cfi_sections	.debug_frame
  18              		.section	.text.tmrcb,"ax",%progbits
  19              		.align	2
  20              		.p2align 4,,15
  21              		.thumb
  22              		.thumb_func
  23              		.type	tmrcb, %function
  24              	tmrcb:
  25              	.LFB7:
  26              		.file 1 "../../../os/various/evtimer.c"
  27              		.loc 1 28 0
  28              		.cfi_startproc
  29              		@ args = 0, pretend = 0, frame = 0
  30              		@ frame_needed = 0, uses_anonymous_args = 0
  31              	.LVL0:
  32 0000 10B5     		push	{r4, lr}
  33              		.cfi_def_cfa_offset 8
  34              		.cfi_offset 4, -8
  35              		.cfi_offset 14, -4
  36              	.LBB2:
  37              		.loc 1 31 0
  38 0002 2023     		movs	r3, #32
  39              	.LBE2:
  40              		.loc 1 28 0
  41 0004 0446     		mov	r4, r0
  42              	.LVL1:
  43              	.LBB3:
  44              		.loc 1 31 0
  45              	@ 31 "../../../os/various/evtimer.c" 1
  46 0006 83F31188 		msr     BASEPRI, r3
  47              	@ 0 "" 2
  48              		.thumb
  49              	.LBE3:
  50 000a FFF7FEFF 		bl	dbg_check_lock_from_isr
  51              	.LVL2:
  52              		.loc 1 32 0
  53 000e 04F11400 		add	r0, r4, #20
  54 0012 0021     		movs	r1, #0
  55 0014 FFF7FEFF 		bl	chEvtBroadcastFlagsI
  56              	.LVL3:
  57              		.loc 1 33 0
ARM GAS  /tmp/ccRn3m4s.s 			page 2


  58 0018 2346     		mov	r3, r4
  59 001a 2046     		mov	r0, r4
  60 001c A169     		ldr	r1, [r4, #24]
  61 001e 044A     		ldr	r2, .L3
  62 0020 FFF7FEFF 		bl	chVTSetI
  63              	.LVL4:
  64              		.loc 1 34 0
  65 0024 FFF7FEFF 		bl	dbg_check_unlock_from_isr
  66              	.LVL5:
  67              	.LBB4:
  68 0028 0023     		movs	r3, #0
  69              	@ 34 "../../../os/various/evtimer.c" 1
  70 002a 83F31188 		msr     BASEPRI, r3
  71              	@ 0 "" 2
  72              		.thumb
  73 002e 10BD     		pop	{r4, pc}
  74              	.LVL6:
  75              	.L4:
  76              		.align	2
  77              	.L3:
  78 0030 00000000 		.word	tmrcb
  79              	.LBE4:
  80              		.cfi_endproc
  81              	.LFE7:
  82              		.size	tmrcb, .-tmrcb
  83 0034 AFF30080 		.section	.text.evtStart,"ax",%progbits
  83      AFF30080 
  83      AFF30080 
  84              		.align	2
  85              		.p2align 4,,15
  86              		.global	evtStart
  87              		.thumb
  88              		.thumb_func
  89              		.type	evtStart, %function
  90              	evtStart:
  91              	.LFB8:
  92              		.loc 1 43 0
  93              		.cfi_startproc
  94              		@ args = 0, pretend = 0, frame = 0
  95              		@ frame_needed = 0, uses_anonymous_args = 0
  96              	.LVL7:
  97 0000 10B5     		push	{r4, lr}
  98              		.cfi_def_cfa_offset 8
  99              		.cfi_offset 4, -8
 100              		.cfi_offset 14, -4
 101              	.LBB5:
 102              		.loc 1 45 0
 103 0002 2023     		movs	r3, #32
 104              	.LBE5:
 105              		.loc 1 43 0
 106 0004 0446     		mov	r4, r0
 107              	.LBB6:
 108              		.loc 1 45 0
 109              	@ 45 "../../../os/various/evtimer.c" 1
 110 0006 83F31188 		msr     BASEPRI, r3
 111              	@ 0 "" 2
 112              		.thumb
ARM GAS  /tmp/ccRn3m4s.s 			page 3


 113              	.LBE6:
 114 000a FFF7FEFF 		bl	dbg_check_lock
 115              	.LVL8:
 116              		.loc 1 47 0
 117 000e E368     		ldr	r3, [r4, #12]
 118 0010 2BB1     		cbz	r3, .L9
 119              		.loc 1 50 0
 120 0012 FFF7FEFF 		bl	dbg_check_unlock
 121              	.LVL9:
 122              	.LBB7:
 123 0016 0023     		movs	r3, #0
 124              	@ 50 "../../../os/various/evtimer.c" 1
 125 0018 83F31188 		msr     BASEPRI, r3
 126              	@ 0 "" 2
 127              		.thumb
 128 001c 10BD     		pop	{r4, pc}
 129              	.LVL10:
 130              	.L9:
 131              	.LBE7:
 132              		.loc 1 48 0
 133 001e 2346     		mov	r3, r4
 134 0020 2046     		mov	r0, r4
 135 0022 A169     		ldr	r1, [r4, #24]
 136 0024 044A     		ldr	r2, .L10
 137 0026 FFF7FEFF 		bl	chVTSetI
 138              	.LVL11:
 139              		.loc 1 50 0
 140 002a FFF7FEFF 		bl	dbg_check_unlock
 141              	.LVL12:
 142              	.LBB8:
 143 002e 0023     		movs	r3, #0
 144              	@ 50 "../../../os/various/evtimer.c" 1
 145 0030 83F31188 		msr     BASEPRI, r3
 146              	@ 0 "" 2
 147              		.thumb
 148 0034 10BD     		pop	{r4, pc}
 149              	.LVL13:
 150              	.L11:
 151 0036 00BF     		.align	2
 152              	.L10:
 153 0038 00000000 		.word	tmrcb
 154              	.LBE8:
 155              		.cfi_endproc
 156              	.LFE8:
 157              		.size	evtStart, .-evtStart
 158 003c AFF30080 		.section	.text.evtStop,"ax",%progbits
 159              		.align	2
 160              		.p2align 4,,15
 161              		.global	evtStop
 162              		.thumb
 163              		.thumb_func
 164              		.type	evtStop, %function
 165              	evtStop:
 166              	.LFB9:
 167              		.loc 1 59 0
 168              		.cfi_startproc
 169              		@ args = 0, pretend = 0, frame = 0
ARM GAS  /tmp/ccRn3m4s.s 			page 4


 170              		@ frame_needed = 0, uses_anonymous_args = 0
 171              	.LVL14:
 172 0000 10B5     		push	{r4, lr}
 173              		.cfi_def_cfa_offset 8
 174              		.cfi_offset 4, -8
 175              		.cfi_offset 14, -4
 176              	.LBB9:
 177              		.loc 1 61 0
 178 0002 2023     		movs	r3, #32
 179              	.LBE9:
 180              		.loc 1 59 0
 181 0004 0446     		mov	r4, r0
 182              	.LBB10:
 183              		.loc 1 61 0
 184              	@ 61 "../../../os/various/evtimer.c" 1
 185 0006 83F31188 		msr     BASEPRI, r3
 186              	@ 0 "" 2
 187              		.thumb
 188              	.LBE10:
 189 000a FFF7FEFF 		bl	dbg_check_lock
 190              	.LVL15:
 191 000e E368     		ldr	r3, [r4, #12]
 192 0010 13B1     		cbz	r3, .L13
 193              		.loc 1 61 0 is_stmt 0 discriminator 1
 194 0012 2046     		mov	r0, r4
 195 0014 FFF7FEFF 		bl	chVTResetI
 196              	.LVL16:
 197              	.L13:
 198              		.loc 1 61 0 discriminator 3
 199 0018 FFF7FEFF 		bl	dbg_check_unlock
 200              	.LVL17:
 201              	.LBB11:
 202 001c 0023     		movs	r3, #0
 203              	@ 61 "../../../os/various/evtimer.c" 1
 204 001e 83F31188 		msr     BASEPRI, r3
 205              	@ 0 "" 2
 206              		.thumb
 207 0022 10BD     		pop	{r4, pc}
 208              	.LBE11:
 209              		.cfi_endproc
 210              	.LFE9:
 211              		.size	evtStop, .-evtStop
 212 0024 AFF30080 		.text
 212      AFF30080 
 212      AFF30080 
 213              	.Letext0:
 214              		.file 2 "/usr/arm-none-eabi/include/machine/_default_types.h"
 215              		.file 3 "/usr/arm-none-eabi/include/stdint.h"
 216              		.file 4 "../../../os/ports/GCC/ARMCMx/chtypes.h"
 217              		.file 5 "../../../os/kernel/include/chlists.h"
 218              		.file 6 "../../../os/kernel/include/chthreads.h"
 219              		.file 7 "../../../os/ports/GCC/ARMCMx/chcore_v7m.h"
 220              		.file 8 "../../../os/kernel/include/chvt.h"
 221              		.file 9 "../../../os/kernel/include/chmtx.h"
 222              		.file 10 "../../../os/kernel/include/chevents.h"
 223              		.file 11 "../../../os/various/evtimer.h"
 224              		.file 12 "../../../os/kernel/include/chdebug.h"
ARM GAS  /tmp/ccRn3m4s.s 			page 5

