ARM GAS  /tmp/ccRn3m4s.s 			page 1


   1              		.syntax unified
   2              		.cpu cortex-m4
   3              		.fpu softvfp
   4              		.eabi_attribute 20, 1
   5              		.eabi_attribute 21, 1
   6              		.eabi_attribute 23, 3
   7              		.eabi_attribute 24, 1
   8              		.eabi_attribute 25, 1
   9              		.eabi_attribute 26, 1
  10              		.eabi_attribute 30, 2
  11              		.eabi_attribute 34, 1
  12              		.eabi_attribute 18, 4
  13              		.thumb
  14              		.file	"evtimer.c"
  15              		.text
  16              	.Ltext0:
  17              		.cfi_sections	.debug_frame
  18              		.section	.text.tmrcb,"ax",%progbits
  19              		.align	2
  20              		.p2align 4,,15
  21              		.thumb
  22              		.thumb_func
  23              		.type	tmrcb, %function
  24              	tmrcb:
  25              	.LFB7:
  26              		.file 1 "../../../os/various/evtimer.c"
  27              		.loc 1 28 0
  28              		.cfi_startproc
  29              		@ args = 0, pretend = 0, frame = 0
  30              		@ frame_needed = 0, uses_anonymous_args = 0
  31              	.LVL0:
  32 0000 10B5     		push	{r4, lr}
  33              		.cfi_def_cfa_offset 8
  34              		.cfi_offset 4, -8
  35              		.cfi_offset 14, -4
  36              	.LBB2:
  37              		.loc 1 31 0
  38 0002 2023     		movs	r3, #32
  39              	.LBE2:
  40              		.loc 1 28 0
  41 0004 0446     		mov	r4, r0
  42              	.LVL1:
  43              	.LBB3:
  44              		.loc 1 31 0
  45              	@ 31 "../../../os/various/evtimer.c" 1
  46 0006 83F31188 		msr     BASEPRI, r3
  47              	@ 0 "" 2
  48              		.thumb
  49              	.LBE3:
  50 000a FFF7FEFF 		bl	dbg_check_lock_from_isr
  51              	.LVL2:
  52              		.loc 1 32 0
  53 000e 04F11400 		add	r0, r4, #20
  54 0012 0021     		movs	r1, #0
  55 0014 FFF7FEFF 		bl	chEvtBroadcastFlagsI
  56              	.LVL3:
  57              		.loc 1 33 0
ARM GAS  /tmp/ccRn3m4s.s 			page 2


  58 0018 2346     		mov	r3, r4
  59 001a 2046     		mov	r0, r4
  60 001c A169     		ldr	r1, [r4, #24]
  61 001e 044A     		ldr	r2, .L3
  62 0020 FFF7FEFF 		bl	chVTSetI
  63              	.LVL4:
  64              		.loc 1 34 0
  65 0024 FFF7FEFF 		bl	dbg_check_unlock_from_isr
  66              	.LVL5:
  67              	.LBB4:
  68 0028 0023     		movs	r3, #0
  69              	@ 34 "../../../os/various/evtimer.c" 1
  70 002a 83F31188 		msr     BASEPRI, r3
  71              	@ 0 "" 2
  72              		.thumb
  73 002e 10BD     		pop	{r4, pc}
  74              	.LVL6:
  75              	.L4:
  76              		.align	2
  77              	.L3:
  78 0030 00000000 		.word	tmrcb
  79              	.LBE4:
  80              		.cfi_endproc
  81              	.LFE7:
  82              		.size	tmrcb, .-tmrcb
  83 0034 AFF30080 		.section	.text.evtStart,"ax",%progbits
  83      AFF30080 
  83      AFF30080 
  84              		.align	2
  85              		.p2align 4,,15
  86              		.global	evtStart
  87              		.thumb
  88              		.thumb_func
  89              		.type	evtStart, %function
  90              	evtStart:
  91              	.LFB8:
  92              		.loc 1 43 0
  93              		.cfi_startproc
  94              		@ args = 0, pretend = 0, frame = 0
  95              		@ frame_needed = 0, uses_anonymous_args = 0
  96              	.LVL7:
  97 0000 10B5     		push	{r4, lr}
  98              		.cfi_def_cfa_offset 8
  99              		.cfi_offset 4, -8
 100              		.cfi_offset 14, -4
 101              	.LBB5:
 102              		.loc 1 45 0
 103 0002 2023     		movs	r3, #32
 104              	.LBE5:
 105              		.loc 1 43 0
 106 0004 0446     		mov	r4, r0
 107              	.LBB6:
 108              		.loc 1 45 0
 109              	@ 45 "../../../os/various/evtimer.c" 1
 110 0006 83F31188 		msr     BASEPRI, r3
 111              	@ 0 "" 2
 112              		.thumb
ARM GAS  /tmp/ccRn3m4s.s 			page 3


 113              	.LBE6:
 114 000a FFF7FEFF 		bl	dbg_check_lock
 115              	.LVL8:
 116              		.loc 1 47 0
 117 000e E368     		ldr	r3, [r4, #12]
 118 0010 2BB1     		cbz	r3, .L9
 119              		.loc 1 50 0
 120 0012 FFF7FEFF 		bl	dbg_check_unlock
 121              	.LVL9:
 122              	.LBB7:
 123 0016 0023     		movs	r3, #0
 124              	@ 50 "../../../os/various/evtimer.c" 1
 125 0018 83F31188 		msr     BASEPRI, r3
 126              	@ 0 "" 2
 127              		.thumb
 128 001c 10BD     		pop	{r4, pc}
 129              	.LVL10:
 130              	.L9:
 131              	.LBE7:
 132              		.loc 1 48 0
 133 001e 2346     		mov	r3, r4
 134 0020 2046     		mov	r0, r4
 135 0022 A169     		ldr	r1, [r4, #24]
 136 0024 044A     		ldr	r2, .L10
 137 0026 FFF7FEFF 		bl	chVTSetI
 138              	.LVL11:
 139              		.loc 1 50 0
 140 002a FFF7FEFF 		bl	dbg_check_unlock
 141              	.LVL12:
 142              	.LBB8:
 143 002e 0023     		movs	r3, #0
 144              	@ 50 "../../../os/various/evtimer.c" 1
 145 0030 83F31188 		msr     BASEPRI, r3
 146              	@ 0 "" 2
 147              		.thumb
 148 0034 10BD     		pop	{r4, pc}
 149              	.LVL13:
 150              	.L11:
 151 0036 00BF     		.align	2
 152              	.L10:
 153 0038 00000000 		.word	tmrcb
 154              	.LBE8:
 155              		.cfi_endproc
 156              	.LFE8:
 157              		.size	evtStart, .-evtStart
 158 003c AFF30080 		.section	.text.evtStop,"ax",%progbits
 159              		.align	2
 160              		.p2align 4,,15
 161              		.global	evtStop
 162              		.thumb
 163              		.thumb_func
 164              		.type	evtStop, %function
 165              	evtStop:
 166              	.LFB9:
 167              		.loc 1 59 0
 168              		.cfi_startproc
 169              		@ args = 0, pretend = 0, frame = 0
ARM GAS  /tmp/ccRn3m4s.s 			page 4


 170              		@ frame_needed = 0, uses_anonymous_args = 0
 171              	.LVL14:
 172 0000 10B5     		push	{r4, lr}
 173              		.cfi_def_cfa_offset 8
 174              		.cfi_offset 4, -8
 175              		.cfi_offset 14, -4
 176              	.LBB9:
 177              		.loc 1 61 0
 178 0002 2023     		movs	r3, #32
 179              	.LBE9:
 180              		.loc 1 59 0
 181 0004 0446     		mov	r4, r0
 182              	.LBB10:
 183              		.loc 1 61 0
 184              	@ 61 "../../../os/various/evtimer.c" 1
 185 0006 83F31188 		msr     BASEPRI, r3
 186              	@ 0 "" 2
 187              		.thumb
 188              	.LBE10:
 189 000a FFF7FEFF 		bl	dbg_check_lock
 190              	.LVL15:
 191 000e E368     		ldr	r3, [r4, #12]
 192 0010 13B1     		cbz	r3, .L13
 193              		.loc 1 61 0 is_stmt 0 discriminator 1
 194 0012 2046     		mov	r0, r4
 195 0014 FFF7FEFF 		bl	chVTResetI
 196              	.LVL16:
 197              	.L13:
 198              		.loc 1 61 0 discriminator 3
 199 0018 FFF7FEFF 		bl	dbg_check_unlock
 200              	.LVL17:
 201              	.LBB11:
 202 001c 0023     		movs	r3, #0
 203              	@ 61 "../../../os/various/evtimer.c" 1
 204 001e 83F31188 		msr     BASEPRI, r3
 205              	@ 0 "" 2
 206              		.thumb
 207 0022 10BD     		pop	{r4, pc}
 208              	.LBE11:
 209              		.cfi_endproc
 210              	.LFE9:
 211              		.size	evtStop, .-evtStop
 212 0024 AFF30080 		.text
 212      AFF30080 
 212      AFF30080 
 213              	.Letext0:
 214              		.file 2 "/usr/arm-none-eabi/include/machine/_default_types.h"
 215              		.file 3 "/usr/arm-none-eabi/include/stdint.h"
 216              		.file 4 "../../../os/ports/GCC/ARMCMx/chtypes.h"
 217              		.file 5 "../../../os/kernel/include/chlists.h"
 218              		.file 6 "../../../os/kernel/include/chthreads.h"
 219              		.file 7 "../../../os/ports/GCC/ARMCMx/chcore_v7m.h"
 220              		.file 8 "../../../os/kernel/include/chvt.h"
 221              		.file 9 "../../../os/kernel/include/chmtx.h"
 222              		.file 10 "../../../os/kernel/include/chevents.h"
 223              		.file 11 "../../../os/various/evtimer.h"
 224              		.file 12 "../../../os/kernel/include/chdebug.h"
ARM GAS  /tmp/ccRn3m4s.s 			page 5


 225              		.section	.debug_info,"",%progbits
 226              	.Ldebug_info0:
 227 0000 31070000 		.4byte	0x731
 228 0004 0400     		.2byte	0x4
 229 0006 00000000 		.4byte	.Ldebug_abbrev0
 230 000a 04       		.byte	0x4
 231 000b 01       		.uleb128 0x1
 232 000c 43000000 		.4byte	.LASF90
 233 0010 01       		.byte	0x1
 234 0011 24030000 		.4byte	.LASF91
 235 0015 B0010000 		.4byte	.LASF92
 236 0019 60000000 		.4byte	.Ldebug_ranges0+0x60
 237 001d 00000000 		.4byte	0
 238 0021 00000000 		.4byte	.Ldebug_line0
 239 0025 02       		.uleb128 0x2
 240 0026 04       		.byte	0x4
 241 0027 05       		.byte	0x5
 242 0028 696E7400 		.ascii	"int\000"
 243 002c 03       		.uleb128 0x3
 244 002d 04       		.byte	0x4
 245 002e 07       		.byte	0x7
 246 002f 2A020000 		.4byte	.LASF0
 247 0033 03       		.uleb128 0x3
 248 0034 01       		.byte	0x1
 249 0035 06       		.byte	0x6
 250 0036 1D010000 		.4byte	.LASF1
 251 003a 04       		.uleb128 0x4
 252 003b 22000000 		.4byte	.LASF5
 253 003f 02       		.byte	0x2
 254 0040 1D       		.byte	0x1d
 255 0041 45000000 		.4byte	0x45
 256 0045 03       		.uleb128 0x3
 257 0046 01       		.byte	0x1
 258 0047 08       		.byte	0x8
 259 0048 67030000 		.4byte	.LASF2
 260 004c 03       		.uleb128 0x3
 261 004d 02       		.byte	0x2
 262 004e 05       		.byte	0x5
 263 004f 94030000 		.4byte	.LASF3
 264 0053 03       		.uleb128 0x3
 265 0054 02       		.byte	0x2
 266 0055 07       		.byte	0x7
 267 0056 62020000 		.4byte	.LASF4
 268 005a 04       		.uleb128 0x4
 269 005b 20040000 		.4byte	.LASF6
 270 005f 02       		.byte	0x2
 271 0060 3F       		.byte	0x3f
 272 0061 65000000 		.4byte	0x65
 273 0065 03       		.uleb128 0x3
 274 0066 04       		.byte	0x4
 275 0067 05       		.byte	0x5
 276 0068 65010000 		.4byte	.LASF7
 277 006c 04       		.uleb128 0x4
 278 006d 94010000 		.4byte	.LASF8
 279 0071 02       		.byte	0x2
 280 0072 41       		.byte	0x41
 281 0073 77000000 		.4byte	0x77
ARM GAS  /tmp/ccRn3m4s.s 			page 6


 282 0077 03       		.uleb128 0x3
 283 0078 04       		.byte	0x4
 284 0079 07       		.byte	0x7
 285 007a 3F020000 		.4byte	.LASF9
 286 007e 03       		.uleb128 0x3
 287 007f 08       		.byte	0x8
 288 0080 05       		.byte	0x5
 289 0081 0F010000 		.4byte	.LASF10
 290 0085 04       		.uleb128 0x4
 291 0086 19030000 		.4byte	.LASF11
 292 008a 02       		.byte	0x2
 293 008b 5B       		.byte	0x5b
 294 008c 90000000 		.4byte	0x90
 295 0090 03       		.uleb128 0x3
 296 0091 08       		.byte	0x8
 297 0092 07       		.byte	0x7
 298 0093 2C000000 		.4byte	.LASF12
 299 0097 04       		.uleb128 0x4
 300 0098 65040000 		.4byte	.LASF13
 301 009c 03       		.byte	0x3
 302 009d 15       		.byte	0x15
 303 009e 3A000000 		.4byte	0x3a
 304 00a2 04       		.uleb128 0x4
 305 00a3 5F030000 		.4byte	.LASF14
 306 00a7 03       		.byte	0x3
 307 00a8 2C       		.byte	0x2c
 308 00a9 5A000000 		.4byte	0x5a
 309 00ad 04       		.uleb128 0x4
 310 00ae E3030000 		.4byte	.LASF15
 311 00b2 03       		.byte	0x3
 312 00b3 2D       		.byte	0x2d
 313 00b4 6C000000 		.4byte	0x6c
 314 00b8 04       		.uleb128 0x4
 315 00b9 19000000 		.4byte	.LASF16
 316 00bd 03       		.byte	0x3
 317 00be 39       		.byte	0x39
 318 00bf 85000000 		.4byte	0x85
 319 00c3 03       		.uleb128 0x3
 320 00c4 01       		.byte	0x1
 321 00c5 02       		.byte	0x2
 322 00c6 59030000 		.4byte	.LASF17
 323 00ca 04       		.uleb128 0x4
 324 00cb 83020000 		.4byte	.LASF18
 325 00cf 04       		.byte	0x4
 326 00d0 2C       		.byte	0x2c
 327 00d1 97000000 		.4byte	0x97
 328 00d5 04       		.uleb128 0x4
 329 00d6 6E010000 		.4byte	.LASF19
 330 00da 04       		.byte	0x4
 331 00db 2D       		.byte	0x2d
 332 00dc 97000000 		.4byte	0x97
 333 00e0 04       		.uleb128 0x4
 334 00e1 42030000 		.4byte	.LASF20
 335 00e5 04       		.byte	0x4
 336 00e6 2E       		.byte	0x2e
 337 00e7 97000000 		.4byte	0x97
 338 00eb 04       		.uleb128 0x4
ARM GAS  /tmp/ccRn3m4s.s 			page 7


 339 00ec 5B010000 		.4byte	.LASF21
 340 00f0 04       		.byte	0x4
 341 00f1 2F       		.byte	0x2f
 342 00f2 97000000 		.4byte	0x97
 343 00f6 04       		.uleb128 0x4
 344 00f7 51030000 		.4byte	.LASF22
 345 00fb 04       		.byte	0x4
 346 00fc 30       		.byte	0x30
 347 00fd AD000000 		.4byte	0xad
 348 0101 04       		.uleb128 0x4
 349 0102 75020000 		.4byte	.LASF23
 350 0106 04       		.byte	0x4
 351 0107 31       		.byte	0x31
 352 0108 A2000000 		.4byte	0xa2
 353 010c 04       		.uleb128 0x4
 354 010d 97020000 		.4byte	.LASF24
 355 0111 04       		.byte	0x4
 356 0112 33       		.byte	0x33
 357 0113 AD000000 		.4byte	0xad
 358 0117 04       		.uleb128 0x4
 359 0118 52040000 		.4byte	.LASF25
 360 011c 04       		.byte	0x4
 361 011d 34       		.byte	0x34
 362 011e AD000000 		.4byte	0xad
 363 0122 04       		.uleb128 0x4
 364 0123 0B040000 		.4byte	.LASF26
 365 0127 04       		.byte	0x4
 366 0128 35       		.byte	0x35
 367 0129 AD000000 		.4byte	0xad
 368 012d 04       		.uleb128 0x4
 369 012e C6030000 		.4byte	.LASF27
 370 0132 05       		.byte	0x5
 371 0133 2A       		.byte	0x2a
 372 0134 38010000 		.4byte	0x138
 373 0138 05       		.uleb128 0x5
 374 0139 C6030000 		.4byte	.LASF27
 375 013d 4C       		.byte	0x4c
 376 013e 06       		.byte	0x6
 377 013f 5E       		.byte	0x5e
 378 0140 41020000 		.4byte	0x241
 379 0144 06       		.uleb128 0x6
 380 0145 B7030000 		.4byte	.LASF28
 381 0149 06       		.byte	0x6
 382 014a 5F       		.byte	0x5f
 383 014b 62020000 		.4byte	0x262
 384 014f 00       		.byte	0
 385 0150 06       		.uleb128 0x6
 386 0151 4A030000 		.4byte	.LASF29
 387 0155 06       		.byte	0x6
 388 0156 61       		.byte	0x61
 389 0157 62020000 		.4byte	0x262
 390 015b 04       		.byte	0x4
 391 015c 06       		.uleb128 0x6
 392 015d 08010000 		.4byte	.LASF30
 393 0161 06       		.byte	0x6
 394 0162 63       		.byte	0x63
 395 0163 F6000000 		.4byte	0xf6
ARM GAS  /tmp/ccRn3m4s.s 			page 8


 396 0167 08       		.byte	0x8
 397 0168 06       		.uleb128 0x6
 398 0169 B7040000 		.4byte	.LASF31
 399 016d 06       		.byte	0x6
 400 016e 64       		.byte	0x64
 401 016f 27030000 		.4byte	0x327
 402 0173 0C       		.byte	0xc
 403 0174 06       		.uleb128 0x6
 404 0175 8C010000 		.4byte	.LASF32
 405 0179 06       		.byte	0x6
 406 017a 66       		.byte	0x66
 407 017b 62020000 		.4byte	0x262
 408 017f 10       		.byte	0x10
 409 0180 06       		.uleb128 0x6
 410 0181 ED020000 		.4byte	.LASF33
 411 0185 06       		.byte	0x6
 412 0186 67       		.byte	0x67
 413 0187 62020000 		.4byte	0x262
 414 018b 14       		.byte	0x14
 415 018c 06       		.uleb128 0x6
 416 018d 9A040000 		.4byte	.LASF34
 417 0191 06       		.byte	0x6
 418 0192 6E       		.byte	0x6e
 419 0193 B3040000 		.4byte	0x4b3
 420 0197 18       		.byte	0x18
 421 0198 06       		.uleb128 0x6
 422 0199 1F020000 		.4byte	.LASF35
 423 019d 06       		.byte	0x6
 424 019e 74       		.byte	0x74
 425 019f C5040000 		.4byte	0x4c5
 426 01a3 1C       		.byte	0x1c
 427 01a4 06       		.uleb128 0x6
 428 01a5 9E030000 		.4byte	.LASF36
 429 01a9 06       		.byte	0x6
 430 01aa 79       		.byte	0x79
 431 01ab D5000000 		.4byte	0xd5
 432 01af 20       		.byte	0x20
 433 01b0 06       		.uleb128 0x6
 434 01b1 BE030000 		.4byte	.LASF37
 435 01b5 06       		.byte	0x6
 436 01b6 7D       		.byte	0x7d
 437 01b7 CA000000 		.4byte	0xca
 438 01bb 21       		.byte	0x21
 439 01bc 06       		.uleb128 0x6
 440 01bd 5E040000 		.4byte	.LASF38
 441 01c1 06       		.byte	0x6
 442 01c2 82       		.byte	0x82
 443 01c3 E0000000 		.4byte	0xe0
 444 01c7 22       		.byte	0x22
 445 01c8 06       		.uleb128 0x6
 446 01c9 A6030000 		.4byte	.LASF39
 447 01cd 06       		.byte	0x6
 448 01ce 88       		.byte	0x88
 449 01cf EB000000 		.4byte	0xeb
 450 01d3 23       		.byte	0x23
 451 01d4 06       		.uleb128 0x6
 452 01d5 32040000 		.4byte	.LASF40
ARM GAS  /tmp/ccRn3m4s.s 			page 9


 453 01d9 06       		.byte	0x6
 454 01da 8F       		.byte	0x8f
 455 01db C5030000 		.4byte	0x3c5
 456 01df 24       		.byte	0x24
 457 01e0 07       		.uleb128 0x7
 458 01e1 705F7500 		.ascii	"p_u\000"
 459 01e5 06       		.byte	0x6
 460 01e6 B4       		.byte	0xb4
 461 01e7 7E040000 		.4byte	0x47e
 462 01eb 28       		.byte	0x28
 463 01ec 06       		.uleb128 0x6
 464 01ed BD040000 		.4byte	.LASF41
 465 01f1 06       		.byte	0x6
 466 01f2 B9       		.byte	0xb9
 467 01f3 88020000 		.4byte	0x288
 468 01f7 2C       		.byte	0x2c
 469 01f8 06       		.uleb128 0x6
 470 01f9 40040000 		.4byte	.LASF42
 471 01fd 06       		.byte	0x6
 472 01fe BF       		.byte	0xbf
 473 01ff 68020000 		.4byte	0x268
 474 0203 30       		.byte	0x30
 475 0204 06       		.uleb128 0x6
 476 0205 0C000000 		.4byte	.LASF43
 477 0209 06       		.byte	0x6
 478 020a C3       		.byte	0xc3
 479 020b 01010000 		.4byte	0x101
 480 020f 38       		.byte	0x38
 481 0210 06       		.uleb128 0x6
 482 0211 D8030000 		.4byte	.LASF44
 483 0215 06       		.byte	0x6
 484 0216 C9       		.byte	0xc9
 485 0217 0C010000 		.4byte	0x10c
 486 021b 3C       		.byte	0x3c
 487 021c 06       		.uleb128 0x6
 488 021d 8A030000 		.4byte	.LASF45
 489 0221 06       		.byte	0x6
 490 0222 D0       		.byte	0xd0
 491 0223 CB040000 		.4byte	0x4cb
 492 0227 40       		.byte	0x40
 493 0228 06       		.uleb128 0x6
 494 0229 15040000 		.4byte	.LASF46
 495 022d 06       		.byte	0x6
 496 022e D4       		.byte	0xd4
 497 022f F6000000 		.4byte	0xf6
 498 0233 44       		.byte	0x44
 499 0234 06       		.uleb128 0x6
 500 0235 4B010000 		.4byte	.LASF47
 501 0239 06       		.byte	0x6
 502 023a DA       		.byte	0xda
 503 023b 9E020000 		.4byte	0x29e
 504 023f 48       		.byte	0x48
 505 0240 00       		.byte	0
 506 0241 08       		.uleb128 0x8
 507 0242 08       		.byte	0x8
 508 0243 05       		.byte	0x5
 509 0244 61       		.byte	0x61
ARM GAS  /tmp/ccRn3m4s.s 			page 10


 510 0245 62020000 		.4byte	0x262
 511 0249 06       		.uleb128 0x6
 512 024a B7030000 		.4byte	.LASF28
 513 024e 05       		.byte	0x5
 514 024f 62       		.byte	0x62
 515 0250 62020000 		.4byte	0x262
 516 0254 00       		.byte	0
 517 0255 06       		.uleb128 0x6
 518 0256 4A030000 		.4byte	.LASF29
 519 025a 05       		.byte	0x5
 520 025b 64       		.byte	0x64
 521 025c 62020000 		.4byte	0x262
 522 0260 04       		.byte	0x4
 523 0261 00       		.byte	0
 524 0262 09       		.uleb128 0x9
 525 0263 04       		.byte	0x4
 526 0264 2D010000 		.4byte	0x12d
 527 0268 04       		.uleb128 0x4
 528 0269 F5020000 		.4byte	.LASF48
 529 026d 05       		.byte	0x5
 530 026e 66       		.byte	0x66
 531 026f 41020000 		.4byte	0x241
 532 0273 08       		.uleb128 0x8
 533 0274 04       		.byte	0x4
 534 0275 05       		.byte	0x5
 535 0276 6B       		.byte	0x6b
 536 0277 88020000 		.4byte	0x288
 537 027b 06       		.uleb128 0x6
 538 027c B7030000 		.4byte	.LASF28
 539 0280 05       		.byte	0x5
 540 0281 6D       		.byte	0x6d
 541 0282 62020000 		.4byte	0x262
 542 0286 00       		.byte	0
 543 0287 00       		.byte	0
 544 0288 04       		.uleb128 0x4
 545 0289 8B020000 		.4byte	.LASF49
 546 028d 05       		.byte	0x5
 547 028e 70       		.byte	0x70
 548 028f 73020000 		.4byte	0x273
 549 0293 04       		.uleb128 0x4
 550 0294 9F010000 		.4byte	.LASF50
 551 0298 07       		.byte	0x7
 552 0299 E5       		.byte	0xe5
 553 029a 9E020000 		.4byte	0x29e
 554 029e 0A       		.uleb128 0xa
 555 029f 04       		.byte	0x4
 556 02a0 04       		.uleb128 0x4
 557 02a1 A9020000 		.4byte	.LASF51
 558 02a5 07       		.byte	0x7
 559 02a6 EB       		.byte	0xeb
 560 02a7 B8000000 		.4byte	0xb8
 561 02ab 0B       		.uleb128 0xb
 562 02ac 39040000 		.4byte	.LASF52
 563 02b0 24       		.byte	0x24
 564 02b1 07       		.byte	0x7
 565 02b2 0C01     		.2byte	0x10c
 566 02b4 27030000 		.4byte	0x327
ARM GAS  /tmp/ccRn3m4s.s 			page 11


 567 02b8 0C       		.uleb128 0xc
 568 02b9 723400   		.ascii	"r4\000"
 569 02bc 07       		.byte	0x7
 570 02bd 1F01     		.2byte	0x11f
 571 02bf 93020000 		.4byte	0x293
 572 02c3 00       		.byte	0
 573 02c4 0C       		.uleb128 0xc
 574 02c5 723500   		.ascii	"r5\000"
 575 02c8 07       		.byte	0x7
 576 02c9 2001     		.2byte	0x120
 577 02cb 93020000 		.4byte	0x293
 578 02cf 04       		.byte	0x4
 579 02d0 0C       		.uleb128 0xc
 580 02d1 723600   		.ascii	"r6\000"
 581 02d4 07       		.byte	0x7
 582 02d5 2101     		.2byte	0x121
 583 02d7 93020000 		.4byte	0x293
 584 02db 08       		.byte	0x8
 585 02dc 0C       		.uleb128 0xc
 586 02dd 723700   		.ascii	"r7\000"
 587 02e0 07       		.byte	0x7
 588 02e1 2201     		.2byte	0x122
 589 02e3 93020000 		.4byte	0x293
 590 02e7 0C       		.byte	0xc
 591 02e8 0C       		.uleb128 0xc
 592 02e9 723800   		.ascii	"r8\000"
 593 02ec 07       		.byte	0x7
 594 02ed 2301     		.2byte	0x123
 595 02ef 93020000 		.4byte	0x293
 596 02f3 10       		.byte	0x10
 597 02f4 0C       		.uleb128 0xc
 598 02f5 723900   		.ascii	"r9\000"
 599 02f8 07       		.byte	0x7
 600 02f9 2401     		.2byte	0x124
 601 02fb 93020000 		.4byte	0x293
 602 02ff 14       		.byte	0x14
 603 0300 0C       		.uleb128 0xc
 604 0301 72313000 		.ascii	"r10\000"
 605 0305 07       		.byte	0x7
 606 0306 2501     		.2byte	0x125
 607 0308 93020000 		.4byte	0x293
 608 030c 18       		.byte	0x18
 609 030d 0C       		.uleb128 0xc
 610 030e 72313100 		.ascii	"r11\000"
 611 0312 07       		.byte	0x7
 612 0313 2601     		.2byte	0x126
 613 0315 93020000 		.4byte	0x293
 614 0319 1C       		.byte	0x1c
 615 031a 0C       		.uleb128 0xc
 616 031b 6C7200   		.ascii	"lr\000"
 617 031e 07       		.byte	0x7
 618 031f 2701     		.2byte	0x127
 619 0321 93020000 		.4byte	0x293
 620 0325 20       		.byte	0x20
 621 0326 00       		.byte	0
 622 0327 0B       		.uleb128 0xb
 623 0328 5A020000 		.4byte	.LASF53
ARM GAS  /tmp/ccRn3m4s.s 			page 12


 624 032c 04       		.byte	0x4
 625 032d 07       		.byte	0x7
 626 032e 3101     		.2byte	0x131
 627 0330 42030000 		.4byte	0x342
 628 0334 0C       		.uleb128 0xc
 629 0335 72313300 		.ascii	"r13\000"
 630 0339 07       		.byte	0x7
 631 033a 3201     		.2byte	0x132
 632 033c 42030000 		.4byte	0x342
 633 0340 00       		.byte	0
 634 0341 00       		.byte	0
 635 0342 09       		.uleb128 0x9
 636 0343 04       		.byte	0x4
 637 0344 AB020000 		.4byte	0x2ab
 638 0348 03       		.uleb128 0x3
 639 0349 04       		.byte	0x4
 640 034a 07       		.byte	0x7
 641 034b D3020000 		.4byte	.LASF54
 642 034f 04       		.uleb128 0x4
 643 0350 51020000 		.4byte	.LASF55
 644 0354 08       		.byte	0x8
 645 0355 58       		.byte	0x58
 646 0356 5A030000 		.4byte	0x35a
 647 035a 09       		.uleb128 0x9
 648 035b 04       		.byte	0x4
 649 035c 60030000 		.4byte	0x360
 650 0360 0D       		.uleb128 0xd
 651 0361 6B030000 		.4byte	0x36b
 652 0365 0E       		.uleb128 0xe
 653 0366 9E020000 		.4byte	0x29e
 654 036a 00       		.byte	0
 655 036b 04       		.uleb128 0x4
 656 036c EC030000 		.4byte	.LASF56
 657 0370 08       		.byte	0x8
 658 0371 5D       		.byte	0x5d
 659 0372 76030000 		.4byte	0x376
 660 0376 05       		.uleb128 0x5
 661 0377 EC030000 		.4byte	.LASF56
 662 037b 14       		.byte	0x14
 663 037c 08       		.byte	0x8
 664 037d 64       		.byte	0x64
 665 037e BF030000 		.4byte	0x3bf
 666 0382 06       		.uleb128 0x6
 667 0383 37020000 		.4byte	.LASF57
 668 0387 08       		.byte	0x8
 669 0388 65       		.byte	0x65
 670 0389 BF030000 		.4byte	0x3bf
 671 038d 00       		.byte	0
 672 038e 06       		.uleb128 0x6
 673 038f A8010000 		.4byte	.LASF58
 674 0393 08       		.byte	0x8
 675 0394 67       		.byte	0x67
 676 0395 BF030000 		.4byte	0x3bf
 677 0399 04       		.byte	0x4
 678 039a 06       		.uleb128 0x6
 679 039b B4020000 		.4byte	.LASF59
 680 039f 08       		.byte	0x8
ARM GAS  /tmp/ccRn3m4s.s 			page 13


 681 03a0 69       		.byte	0x69
 682 03a1 22010000 		.4byte	0x122
 683 03a5 08       		.byte	0x8
 684 03a6 06       		.uleb128 0x6
 685 03a7 DC020000 		.4byte	.LASF60
 686 03ab 08       		.byte	0x8
 687 03ac 6A       		.byte	0x6a
 688 03ad 4F030000 		.4byte	0x34f
 689 03b1 0C       		.byte	0xc
 690 03b2 06       		.uleb128 0x6
 691 03b3 4B040000 		.4byte	.LASF61
 692 03b7 08       		.byte	0x8
 693 03b8 6C       		.byte	0x6c
 694 03b9 9E020000 		.4byte	0x29e
 695 03bd 10       		.byte	0x10
 696 03be 00       		.byte	0
 697 03bf 09       		.uleb128 0x9
 698 03c0 04       		.byte	0x4
 699 03c1 6B030000 		.4byte	0x36b
 700 03c5 0F       		.uleb128 0xf
 701 03c6 22010000 		.4byte	0x122
 702 03ca 05       		.uleb128 0x5
 703 03cb A3020000 		.4byte	.LASF62
 704 03cf 10       		.byte	0x10
 705 03d0 09       		.byte	0x9
 706 03d1 2C       		.byte	0x2c
 707 03d2 FB030000 		.4byte	0x3fb
 708 03d6 06       		.uleb128 0x6
 709 03d7 53010000 		.4byte	.LASF63
 710 03db 09       		.byte	0x9
 711 03dc 2D       		.byte	0x2d
 712 03dd 68020000 		.4byte	0x268
 713 03e1 00       		.byte	0
 714 03e2 06       		.uleb128 0x6
 715 03e3 AF040000 		.4byte	.LASF64
 716 03e7 09       		.byte	0x9
 717 03e8 2F       		.byte	0x2f
 718 03e9 62020000 		.4byte	0x262
 719 03ed 08       		.byte	0x8
 720 03ee 06       		.uleb128 0x6
 721 03ef 04040000 		.4byte	.LASF65
 722 03f3 09       		.byte	0x9
 723 03f4 31       		.byte	0x31
 724 03f5 FB030000 		.4byte	0x3fb
 725 03f9 0C       		.byte	0xc
 726 03fa 00       		.byte	0
 727 03fb 09       		.uleb128 0x9
 728 03fc 04       		.byte	0x4
 729 03fd CA030000 		.4byte	0x3ca
 730 0401 04       		.uleb128 0x4
 731 0402 A3020000 		.4byte	.LASF62
 732 0406 09       		.byte	0x9
 733 0407 33       		.byte	0x33
 734 0408 CA030000 		.4byte	0x3ca
 735 040c 04       		.uleb128 0x4
 736 040d 85040000 		.4byte	.LASF66
 737 0411 0A       		.byte	0xa
ARM GAS  /tmp/ccRn3m4s.s 			page 14


 738 0412 2C       		.byte	0x2c
 739 0413 17040000 		.4byte	0x417
 740 0417 05       		.uleb128 0x5
 741 0418 85040000 		.4byte	.LASF66
 742 041c 10       		.byte	0x10
 743 041d 0A       		.byte	0xa
 744 041e 31       		.byte	0x31
 745 041f 54040000 		.4byte	0x454
 746 0423 06       		.uleb128 0x6
 747 0424 7B020000 		.4byte	.LASF67
 748 0428 0A       		.byte	0xa
 749 0429 32       		.byte	0x32
 750 042a 54040000 		.4byte	0x454
 751 042e 00       		.byte	0
 752 042f 06       		.uleb128 0x6
 753 0430 75030000 		.4byte	.LASF68
 754 0434 0A       		.byte	0xa
 755 0435 35       		.byte	0x35
 756 0436 62020000 		.4byte	0x262
 757 043a 04       		.byte	0x4
 758 043b 06       		.uleb128 0x6
 759 043c 11030000 		.4byte	.LASF69
 760 0440 0A       		.byte	0xa
 761 0441 37       		.byte	0x37
 762 0442 0C010000 		.4byte	0x10c
 763 0446 08       		.byte	0x8
 764 0447 06       		.uleb128 0x6
 765 0448 81030000 		.4byte	.LASF70
 766 044c 0A       		.byte	0xa
 767 044d 3A       		.byte	0x3a
 768 044e 17010000 		.4byte	0x117
 769 0452 0C       		.byte	0xc
 770 0453 00       		.byte	0
 771 0454 09       		.uleb128 0x9
 772 0455 04       		.byte	0x4
 773 0456 0C040000 		.4byte	0x40c
 774 045a 05       		.uleb128 0x5
 775 045b 13020000 		.4byte	.LASF71
 776 045f 04       		.byte	0x4
 777 0460 0A       		.byte	0xa
 778 0461 41       		.byte	0x41
 779 0462 73040000 		.4byte	0x473
 780 0466 06       		.uleb128 0x6
 781 0467 A1040000 		.4byte	.LASF72
 782 046b 0A       		.byte	0xa
 783 046c 42       		.byte	0x42
 784 046d 54040000 		.4byte	0x454
 785 0471 00       		.byte	0
 786 0472 00       		.byte	0
 787 0473 04       		.uleb128 0x4
 788 0474 13020000 		.4byte	.LASF71
 789 0478 0A       		.byte	0xa
 790 0479 45       		.byte	0x45
 791 047a 5A040000 		.4byte	0x45a
 792 047e 10       		.uleb128 0x10
 793 047f 04       		.byte	0x4
 794 0480 06       		.byte	0x6
ARM GAS  /tmp/ccRn3m4s.s 			page 15


 795 0481 96       		.byte	0x96
 796 0482 B3040000 		.4byte	0x4b3
 797 0486 11       		.uleb128 0x11
 798 0487 12000000 		.4byte	.LASF73
 799 048b 06       		.byte	0x6
 800 048c 9D       		.byte	0x9d
 801 048d 01010000 		.4byte	0x101
 802 0491 11       		.uleb128 0x11
 803 0492 F6000000 		.4byte	.LASF74
 804 0496 06       		.byte	0x6
 805 0497 A4       		.byte	0xa4
 806 0498 01010000 		.4byte	0x101
 807 049c 11       		.uleb128 0x11
 808 049d 93040000 		.4byte	.LASF75
 809 04a1 06       		.byte	0x6
 810 04a2 AB       		.byte	0xab
 811 04a3 9E020000 		.4byte	0x29e
 812 04a7 11       		.uleb128 0x11
 813 04a8 B0030000 		.4byte	.LASF76
 814 04ac 06       		.byte	0x6
 815 04ad B2       		.byte	0xb2
 816 04ae 0C010000 		.4byte	0x10c
 817 04b2 00       		.byte	0
 818 04b3 09       		.uleb128 0x9
 819 04b4 04       		.byte	0x4
 820 04b5 B9040000 		.4byte	0x4b9
 821 04b9 12       		.uleb128 0x12
 822 04ba BE040000 		.4byte	0x4be
 823 04be 03       		.uleb128 0x3
 824 04bf 01       		.byte	0x1
 825 04c0 08       		.byte	0x8
 826 04c1 F9030000 		.4byte	.LASF77
 827 04c5 09       		.uleb128 0x9
 828 04c6 04       		.byte	0x4
 829 04c7 A0020000 		.4byte	0x2a0
 830 04cb 09       		.uleb128 0x9
 831 04cc 04       		.byte	0x4
 832 04cd 01040000 		.4byte	0x401
 833 04d1 08       		.uleb128 0x8
 834 04d2 1C       		.byte	0x1c
 835 04d3 0B       		.byte	0xb
 836 04d4 27       		.byte	0x27
 837 04d5 FE040000 		.4byte	0x4fe
 838 04d9 06       		.uleb128 0x6
 839 04da A9040000 		.4byte	.LASF78
 840 04de 0B       		.byte	0xb
 841 04df 28       		.byte	0x28
 842 04e0 6B030000 		.4byte	0x36b
 843 04e4 00       		.byte	0
 844 04e5 06       		.uleb128 0x6
 845 04e6 CD020000 		.4byte	.LASF79
 846 04ea 0B       		.byte	0xb
 847 04eb 29       		.byte	0x29
 848 04ec 73040000 		.4byte	0x473
 849 04f0 14       		.byte	0x14
 850 04f1 06       		.uleb128 0x6
 851 04f2 00000000 		.4byte	.LASF80
ARM GAS  /tmp/ccRn3m4s.s 			page 16


 852 04f6 0B       		.byte	0xb
 853 04f7 2A       		.byte	0x2a
 854 04f8 22010000 		.4byte	0x122
 855 04fc 18       		.byte	0x18
 856 04fd 00       		.byte	0
 857 04fe 04       		.uleb128 0x4
 858 04ff 29010000 		.4byte	.LASF81
 859 0503 0B       		.byte	0xb
 860 0504 2B       		.byte	0x2b
 861 0505 D1040000 		.4byte	0x4d1
 862 0509 13       		.uleb128 0x13
 863 050a FE030000 		.4byte	.LASF93
 864 050e 01       		.byte	0x1
 865 050f 1C       		.byte	0x1c
 866 0510 00000000 		.4byte	.LFB7
 867 0514 34000000 		.4byte	.LFE7-.LFB7
 868 0518 01       		.uleb128 0x1
 869 0519 9C       		.byte	0x9c
 870 051a BB050000 		.4byte	0x5bb
 871 051e 14       		.uleb128 0x14
 872 051f 7000     		.ascii	"p\000"
 873 0521 01       		.byte	0x1
 874 0522 1C       		.byte	0x1c
 875 0523 9E020000 		.4byte	0x29e
 876 0527 00000000 		.4byte	.LLST0
 877 052b 15       		.uleb128 0x15
 878 052c 65747000 		.ascii	"etp\000"
 879 0530 01       		.byte	0x1
 880 0531 1D       		.byte	0x1d
 881 0532 BB050000 		.4byte	0x5bb
 882 0536 2C000000 		.4byte	.LLST1
 883 053a 16       		.uleb128 0x16
 884 053b 00000000 		.4byte	.Ldebug_ranges0+0
 885 053f 51050000 		.4byte	0x551
 886 0543 17       		.uleb128 0x17
 887 0544 746D7000 		.ascii	"tmp\000"
 888 0548 01       		.byte	0x1
 889 0549 1F       		.byte	0x1f
 890 054a AD000000 		.4byte	0xad
 891 054e 01       		.uleb128 0x1
 892 054f 53       		.byte	0x53
 893 0550 00       		.byte	0
 894 0551 18       		.uleb128 0x18
 895 0552 28000000 		.4byte	.LBB4
 896 0556 0C000000 		.4byte	.LBE4-.LBB4
 897 055a 6C050000 		.4byte	0x56c
 898 055e 17       		.uleb128 0x17
 899 055f 746D7000 		.ascii	"tmp\000"
 900 0563 01       		.byte	0x1
 901 0564 22       		.byte	0x22
 902 0565 AD000000 		.4byte	0xad
 903 0569 01       		.uleb128 0x1
 904 056a 53       		.byte	0x53
 905 056b 00       		.byte	0
 906 056c 19       		.uleb128 0x19
 907 056d 0E000000 		.4byte	.LVL2
 908 0571 CF060000 		.4byte	0x6cf
ARM GAS  /tmp/ccRn3m4s.s 			page 17


 909 0575 1A       		.uleb128 0x1a
 910 0576 18000000 		.4byte	.LVL3
 911 057a D6060000 		.4byte	0x6d6
 912 057e 8E050000 		.4byte	0x58e
 913 0582 1B       		.uleb128 0x1b
 914 0583 01       		.uleb128 0x1
 915 0584 51       		.byte	0x51
 916 0585 01       		.uleb128 0x1
 917 0586 30       		.byte	0x30
 918 0587 1B       		.uleb128 0x1b
 919 0588 01       		.uleb128 0x1
 920 0589 50       		.byte	0x50
 921 058a 02       		.uleb128 0x2
 922 058b 74       		.byte	0x74
 923 058c 14       		.sleb128 20
 924 058d 00       		.byte	0
 925 058e 1A       		.uleb128 0x1a
 926 058f 24000000 		.4byte	.LVL4
 927 0593 F2060000 		.4byte	0x6f2
 928 0597 B1050000 		.4byte	0x5b1
 929 059b 1B       		.uleb128 0x1b
 930 059c 01       		.uleb128 0x1
 931 059d 53       		.byte	0x53
 932 059e 02       		.uleb128 0x2
 933 059f 74       		.byte	0x74
 934 05a0 00       		.sleb128 0
 935 05a1 1B       		.uleb128 0x1b
 936 05a2 01       		.uleb128 0x1
 937 05a3 52       		.byte	0x52
 938 05a4 05       		.uleb128 0x5
 939 05a5 03       		.byte	0x3
 940 05a6 00000000 		.4byte	tmrcb
 941 05aa 1B       		.uleb128 0x1b
 942 05ab 01       		.uleb128 0x1
 943 05ac 50       		.byte	0x50
 944 05ad 02       		.uleb128 0x2
 945 05ae 74       		.byte	0x74
 946 05af 00       		.sleb128 0
 947 05b0 00       		.byte	0
 948 05b1 19       		.uleb128 0x19
 949 05b2 28000000 		.4byte	.LVL5
 950 05b6 12070000 		.4byte	0x712
 951 05ba 00       		.byte	0
 952 05bb 09       		.uleb128 0x9
 953 05bc 04       		.byte	0x4
 954 05bd FE040000 		.4byte	0x4fe
 955 05c1 1C       		.uleb128 0x1c
 956 05c2 FF000000 		.4byte	.LASF82
 957 05c6 01       		.byte	0x1
 958 05c7 2B       		.byte	0x2b
 959 05c8 00000000 		.4byte	.LFB8
 960 05cc 3C000000 		.4byte	.LFE8-.LFB8
 961 05d0 01       		.uleb128 0x1
 962 05d1 9C       		.byte	0x9c
 963 05d2 52060000 		.4byte	0x652
 964 05d6 14       		.uleb128 0x14
 965 05d7 65747000 		.ascii	"etp\000"
ARM GAS  /tmp/ccRn3m4s.s 			page 18


 966 05db 01       		.byte	0x1
 967 05dc 2B       		.byte	0x2b
 968 05dd BB050000 		.4byte	0x5bb
 969 05e1 58000000 		.4byte	.LLST2
 970 05e5 16       		.uleb128 0x16
 971 05e6 18000000 		.4byte	.Ldebug_ranges0+0x18
 972 05ea FC050000 		.4byte	0x5fc
 973 05ee 17       		.uleb128 0x17
 974 05ef 746D7000 		.ascii	"tmp\000"
 975 05f3 01       		.byte	0x1
 976 05f4 2D       		.byte	0x2d
 977 05f5 AD000000 		.4byte	0xad
 978 05f9 01       		.uleb128 0x1
 979 05fa 53       		.byte	0x53
 980 05fb 00       		.byte	0
 981 05fc 16       		.uleb128 0x16
 982 05fd 30000000 		.4byte	.Ldebug_ranges0+0x30
 983 0601 13060000 		.4byte	0x613
 984 0605 17       		.uleb128 0x17
 985 0606 746D7000 		.ascii	"tmp\000"
 986 060a 01       		.byte	0x1
 987 060b 32       		.byte	0x32
 988 060c AD000000 		.4byte	0xad
 989 0610 01       		.uleb128 0x1
 990 0611 53       		.byte	0x53
 991 0612 00       		.byte	0
 992 0613 19       		.uleb128 0x19
 993 0614 0E000000 		.4byte	.LVL8
 994 0618 19070000 		.4byte	0x719
 995 061c 19       		.uleb128 0x19
 996 061d 16000000 		.4byte	.LVL9
 997 0621 20070000 		.4byte	0x720
 998 0625 1A       		.uleb128 0x1a
 999 0626 2A000000 		.4byte	.LVL11
 1000 062a F2060000 		.4byte	0x6f2
 1001 062e 48060000 		.4byte	0x648
 1002 0632 1B       		.uleb128 0x1b
 1003 0633 01       		.uleb128 0x1
 1004 0634 53       		.byte	0x53
 1005 0635 02       		.uleb128 0x2
 1006 0636 74       		.byte	0x74
 1007 0637 00       		.sleb128 0
 1008 0638 1B       		.uleb128 0x1b
 1009 0639 01       		.uleb128 0x1
 1010 063a 52       		.byte	0x52
 1011 063b 05       		.uleb128 0x5
 1012 063c 03       		.byte	0x3
 1013 063d 00000000 		.4byte	tmrcb
 1014 0641 1B       		.uleb128 0x1b
 1015 0642 01       		.uleb128 0x1
 1016 0643 50       		.byte	0x50
 1017 0644 02       		.uleb128 0x2
 1018 0645 74       		.byte	0x74
 1019 0646 00       		.sleb128 0
 1020 0647 00       		.byte	0
 1021 0648 19       		.uleb128 0x19
 1022 0649 2E000000 		.4byte	.LVL12
ARM GAS  /tmp/ccRn3m4s.s 			page 19


 1023 064d 20070000 		.4byte	0x720
 1024 0651 00       		.byte	0
 1025 0652 1C       		.uleb128 0x1c
 1026 0653 2A040000 		.4byte	.LASF83
 1027 0657 01       		.byte	0x1
 1028 0658 3B       		.byte	0x3b
 1029 0659 00000000 		.4byte	.LFB9
 1030 065d 24000000 		.4byte	.LFE9-.LFB9
 1031 0661 01       		.uleb128 0x1
 1032 0662 9C       		.byte	0x9c
 1033 0663 CF060000 		.4byte	0x6cf
 1034 0667 14       		.uleb128 0x14
 1035 0668 65747000 		.ascii	"etp\000"
 1036 066c 01       		.byte	0x1
 1037 066d 3B       		.byte	0x3b
 1038 066e BB050000 		.4byte	0x5bb
 1039 0672 84000000 		.4byte	.LLST3
 1040 0676 16       		.uleb128 0x16
 1041 0677 48000000 		.4byte	.Ldebug_ranges0+0x48
 1042 067b 8D060000 		.4byte	0x68d
 1043 067f 17       		.uleb128 0x17
 1044 0680 746D7000 		.ascii	"tmp\000"
 1045 0684 01       		.byte	0x1
 1046 0685 3D       		.byte	0x3d
 1047 0686 AD000000 		.4byte	0xad
 1048 068a 01       		.uleb128 0x1
 1049 068b 53       		.byte	0x53
 1050 068c 00       		.byte	0
 1051 068d 18       		.uleb128 0x18
 1052 068e 1C000000 		.4byte	.LBB11
 1053 0692 08000000 		.4byte	.LBE11-.LBB11
 1054 0696 A8060000 		.4byte	0x6a8
 1055 069a 17       		.uleb128 0x17
 1056 069b 746D7000 		.ascii	"tmp\000"
 1057 069f 01       		.byte	0x1
 1058 06a0 3D       		.byte	0x3d
 1059 06a1 AD000000 		.4byte	0xad
 1060 06a5 01       		.uleb128 0x1
 1061 06a6 53       		.byte	0x53
 1062 06a7 00       		.byte	0
 1063 06a8 19       		.uleb128 0x19
 1064 06a9 0E000000 		.4byte	.LVL15
 1065 06ad 19070000 		.4byte	0x719
 1066 06b1 1A       		.uleb128 0x1a
 1067 06b2 18000000 		.4byte	.LVL16
 1068 06b6 27070000 		.4byte	0x727
 1069 06ba C5060000 		.4byte	0x6c5
 1070 06be 1B       		.uleb128 0x1b
 1071 06bf 01       		.uleb128 0x1
 1072 06c0 50       		.byte	0x50
 1073 06c1 02       		.uleb128 0x2
 1074 06c2 74       		.byte	0x74
 1075 06c3 00       		.sleb128 0
 1076 06c4 00       		.byte	0
 1077 06c5 19       		.uleb128 0x19
 1078 06c6 1C000000 		.4byte	.LVL17
 1079 06ca 20070000 		.4byte	0x720
ARM GAS  /tmp/ccRn3m4s.s 			page 20


 1080 06ce 00       		.byte	0
 1081 06cf 1D       		.uleb128 0x1d
 1082 06d0 6D040000 		.4byte	.LASF86
 1083 06d4 0C       		.byte	0xc
 1084 06d5 E9       		.byte	0xe9
 1085 06d6 1E       		.uleb128 0x1e
 1086 06d7 77010000 		.4byte	.LASF84
 1087 06db 0A       		.byte	0xa
 1088 06dc BA       		.byte	0xba
 1089 06dd EC060000 		.4byte	0x6ec
 1090 06e1 0E       		.uleb128 0xe
 1091 06e2 EC060000 		.4byte	0x6ec
 1092 06e6 0E       		.uleb128 0xe
 1093 06e7 17010000 		.4byte	0x117
 1094 06eb 00       		.byte	0
 1095 06ec 09       		.uleb128 0x9
 1096 06ed 04       		.byte	0x4
 1097 06ee 73040000 		.4byte	0x473
 1098 06f2 1E       		.uleb128 0x1e
 1099 06f3 E4020000 		.4byte	.LASF85
 1100 06f7 08       		.byte	0x8
 1101 06f8 FE       		.byte	0xfe
 1102 06f9 12070000 		.4byte	0x712
 1103 06fd 0E       		.uleb128 0xe
 1104 06fe BF030000 		.4byte	0x3bf
 1105 0702 0E       		.uleb128 0xe
 1106 0703 22010000 		.4byte	0x122
 1107 0707 0E       		.uleb128 0xe
 1108 0708 4F030000 		.4byte	0x34f
 1109 070c 0E       		.uleb128 0xe
 1110 070d 9E020000 		.4byte	0x29e
 1111 0711 00       		.byte	0
 1112 0712 1D       		.uleb128 0x1d
 1113 0713 31010000 		.4byte	.LASF87
 1114 0717 0C       		.byte	0xc
 1115 0718 EA       		.byte	0xea
 1116 0719 1D       		.uleb128 0x1d
 1117 071a 02030000 		.4byte	.LASF88
 1118 071e 0C       		.byte	0xc
 1119 071f E7       		.byte	0xe7
 1120 0720 1D       		.uleb128 0x1d
 1121 0721 BC020000 		.4byte	.LASF89
 1122 0725 0C       		.byte	0xc
 1123 0726 E8       		.byte	0xe8
 1124 0727 1F       		.uleb128 0x1f
 1125 0728 CD030000 		.4byte	.LASF94
 1126 072c 08       		.byte	0x8
 1127 072d FF       		.byte	0xff
 1128 072e 0E       		.uleb128 0xe
 1129 072f BF030000 		.4byte	0x3bf
 1130 0733 00       		.byte	0
 1131 0734 00       		.byte	0
 1132              		.section	.debug_abbrev,"",%progbits
 1133              	.Ldebug_abbrev0:
 1134 0000 01       		.uleb128 0x1
 1135 0001 11       		.uleb128 0x11
 1136 0002 01       		.byte	0x1
ARM GAS  /tmp/ccRn3m4s.s 			page 21


 1137 0003 25       		.uleb128 0x25
 1138 0004 0E       		.uleb128 0xe
 1139 0005 13       		.uleb128 0x13
 1140 0006 0B       		.uleb128 0xb
 1141 0007 03       		.uleb128 0x3
 1142 0008 0E       		.uleb128 0xe
 1143 0009 1B       		.uleb128 0x1b
 1144 000a 0E       		.uleb128 0xe
 1145 000b 55       		.uleb128 0x55
 1146 000c 17       		.uleb128 0x17
 1147 000d 11       		.uleb128 0x11
 1148 000e 01       		.uleb128 0x1
 1149 000f 10       		.uleb128 0x10
 1150 0010 17       		.uleb128 0x17
 1151 0011 00       		.byte	0
 1152 0012 00       		.byte	0
 1153 0013 02       		.uleb128 0x2
 1154 0014 24       		.uleb128 0x24
 1155 0015 00       		.byte	0
 1156 0016 0B       		.uleb128 0xb
 1157 0017 0B       		.uleb128 0xb
 1158 0018 3E       		.uleb128 0x3e
 1159 0019 0B       		.uleb128 0xb
 1160 001a 03       		.uleb128 0x3
 1161 001b 08       		.uleb128 0x8
 1162 001c 00       		.byte	0
 1163 001d 00       		.byte	0
 1164 001e 03       		.uleb128 0x3
 1165 001f 24       		.uleb128 0x24
 1166 0020 00       		.byte	0
 1167 0021 0B       		.uleb128 0xb
 1168 0022 0B       		.uleb128 0xb
 1169 0023 3E       		.uleb128 0x3e
 1170 0024 0B       		.uleb128 0xb
 1171 0025 03       		.uleb128 0x3
 1172 0026 0E       		.uleb128 0xe
 1173 0027 00       		.byte	0
 1174 0028 00       		.byte	0
 1175 0029 04       		.uleb128 0x4
 1176 002a 16       		.uleb128 0x16
 1177 002b 00       		.byte	0
 1178 002c 03       		.uleb128 0x3
 1179 002d 0E       		.uleb128 0xe
 1180 002e 3A       		.uleb128 0x3a
 1181 002f 0B       		.uleb128 0xb
 1182 0030 3B       		.uleb128 0x3b
 1183 0031 0B       		.uleb128 0xb
 1184 0032 49       		.uleb128 0x49
 1185 0033 13       		.uleb128 0x13
 1186 0034 00       		.byte	0
 1187 0035 00       		.byte	0
 1188 0036 05       		.uleb128 0x5
 1189 0037 13       		.uleb128 0x13
 1190 0038 01       		.byte	0x1
 1191 0039 03       		.uleb128 0x3
 1192 003a 0E       		.uleb128 0xe
 1193 003b 0B       		.uleb128 0xb
ARM GAS  /tmp/ccRn3m4s.s 			page 22


 1194 003c 0B       		.uleb128 0xb
 1195 003d 3A       		.uleb128 0x3a
 1196 003e 0B       		.uleb128 0xb
 1197 003f 3B       		.uleb128 0x3b
 1198 0040 0B       		.uleb128 0xb
 1199 0041 01       		.uleb128 0x1
 1200 0042 13       		.uleb128 0x13
 1201 0043 00       		.byte	0
 1202 0044 00       		.byte	0
 1203 0045 06       		.uleb128 0x6
 1204 0046 0D       		.uleb128 0xd
 1205 0047 00       		.byte	0
 1206 0048 03       		.uleb128 0x3
 1207 0049 0E       		.uleb128 0xe
 1208 004a 3A       		.uleb128 0x3a
 1209 004b 0B       		.uleb128 0xb
 1210 004c 3B       		.uleb128 0x3b
 1211 004d 0B       		.uleb128 0xb
 1212 004e 49       		.uleb128 0x49
 1213 004f 13       		.uleb128 0x13
 1214 0050 38       		.uleb128 0x38
 1215 0051 0B       		.uleb128 0xb
 1216 0052 00       		.byte	0
 1217 0053 00       		.byte	0
 1218 0054 07       		.uleb128 0x7
 1219 0055 0D       		.uleb128 0xd
 1220 0056 00       		.byte	0
 1221 0057 03       		.uleb128 0x3
 1222 0058 08       		.uleb128 0x8
 1223 0059 3A       		.uleb128 0x3a
 1224 005a 0B       		.uleb128 0xb
 1225 005b 3B       		.uleb128 0x3b
 1226 005c 0B       		.uleb128 0xb
 1227 005d 49       		.uleb128 0x49
 1228 005e 13       		.uleb128 0x13
 1229 005f 38       		.uleb128 0x38
 1230 0060 0B       		.uleb128 0xb
 1231 0061 00       		.byte	0
 1232 0062 00       		.byte	0
 1233 0063 08       		.uleb128 0x8
 1234 0064 13       		.uleb128 0x13
 1235 0065 01       		.byte	0x1
 1236 0066 0B       		.uleb128 0xb
 1237 0067 0B       		.uleb128 0xb
 1238 0068 3A       		.uleb128 0x3a
 1239 0069 0B       		.uleb128 0xb
 1240 006a 3B       		.uleb128 0x3b
 1241 006b 0B       		.uleb128 0xb
 1242 006c 01       		.uleb128 0x1
 1243 006d 13       		.uleb128 0x13
 1244 006e 00       		.byte	0
 1245 006f 00       		.byte	0
 1246 0070 09       		.uleb128 0x9
 1247 0071 0F       		.uleb128 0xf
 1248 0072 00       		.byte	0
 1249 0073 0B       		.uleb128 0xb
 1250 0074 0B       		.uleb128 0xb
ARM GAS  /tmp/ccRn3m4s.s 			page 23


 1251 0075 49       		.uleb128 0x49
 1252 0076 13       		.uleb128 0x13
 1253 0077 00       		.byte	0
 1254 0078 00       		.byte	0
 1255 0079 0A       		.uleb128 0xa
 1256 007a 0F       		.uleb128 0xf
 1257 007b 00       		.byte	0
 1258 007c 0B       		.uleb128 0xb
 1259 007d 0B       		.uleb128 0xb
 1260 007e 00       		.byte	0
 1261 007f 00       		.byte	0
 1262 0080 0B       		.uleb128 0xb
 1263 0081 13       		.uleb128 0x13
 1264 0082 01       		.byte	0x1
 1265 0083 03       		.uleb128 0x3
 1266 0084 0E       		.uleb128 0xe
 1267 0085 0B       		.uleb128 0xb
 1268 0086 0B       		.uleb128 0xb
 1269 0087 3A       		.uleb128 0x3a
 1270 0088 0B       		.uleb128 0xb
 1271 0089 3B       		.uleb128 0x3b
 1272 008a 05       		.uleb128 0x5
 1273 008b 01       		.uleb128 0x1
 1274 008c 13       		.uleb128 0x13
 1275 008d 00       		.byte	0
 1276 008e 00       		.byte	0
 1277 008f 0C       		.uleb128 0xc
 1278 0090 0D       		.uleb128 0xd
 1279 0091 00       		.byte	0
 1280 0092 03       		.uleb128 0x3
 1281 0093 08       		.uleb128 0x8
 1282 0094 3A       		.uleb128 0x3a
 1283 0095 0B       		.uleb128 0xb
 1284 0096 3B       		.uleb128 0x3b
 1285 0097 05       		.uleb128 0x5
 1286 0098 49       		.uleb128 0x49
 1287 0099 13       		.uleb128 0x13
 1288 009a 38       		.uleb128 0x38
 1289 009b 0B       		.uleb128 0xb
 1290 009c 00       		.byte	0
 1291 009d 00       		.byte	0
 1292 009e 0D       		.uleb128 0xd
 1293 009f 15       		.uleb128 0x15
 1294 00a0 01       		.byte	0x1
 1295 00a1 27       		.uleb128 0x27
 1296 00a2 19       		.uleb128 0x19
 1297 00a3 01       		.uleb128 0x1
 1298 00a4 13       		.uleb128 0x13
 1299 00a5 00       		.byte	0
 1300 00a6 00       		.byte	0
 1301 00a7 0E       		.uleb128 0xe
 1302 00a8 05       		.uleb128 0x5
 1303 00a9 00       		.byte	0
 1304 00aa 49       		.uleb128 0x49
 1305 00ab 13       		.uleb128 0x13
 1306 00ac 00       		.byte	0
 1307 00ad 00       		.byte	0
ARM GAS  /tmp/ccRn3m4s.s 			page 24


 1308 00ae 0F       		.uleb128 0xf
 1309 00af 35       		.uleb128 0x35
 1310 00b0 00       		.byte	0
 1311 00b1 49       		.uleb128 0x49
 1312 00b2 13       		.uleb128 0x13
 1313 00b3 00       		.byte	0
 1314 00b4 00       		.byte	0
 1315 00b5 10       		.uleb128 0x10
 1316 00b6 17       		.uleb128 0x17
 1317 00b7 01       		.byte	0x1
 1318 00b8 0B       		.uleb128 0xb
 1319 00b9 0B       		.uleb128 0xb
 1320 00ba 3A       		.uleb128 0x3a
 1321 00bb 0B       		.uleb128 0xb
 1322 00bc 3B       		.uleb128 0x3b
 1323 00bd 0B       		.uleb128 0xb
 1324 00be 01       		.uleb128 0x1
 1325 00bf 13       		.uleb128 0x13
 1326 00c0 00       		.byte	0
 1327 00c1 00       		.byte	0
 1328 00c2 11       		.uleb128 0x11
 1329 00c3 0D       		.uleb128 0xd
 1330 00c4 00       		.byte	0
 1331 00c5 03       		.uleb128 0x3
 1332 00c6 0E       		.uleb128 0xe
 1333 00c7 3A       		.uleb128 0x3a
 1334 00c8 0B       		.uleb128 0xb
 1335 00c9 3B       		.uleb128 0x3b
 1336 00ca 0B       		.uleb128 0xb
 1337 00cb 49       		.uleb128 0x49
 1338 00cc 13       		.uleb128 0x13
 1339 00cd 00       		.byte	0
 1340 00ce 00       		.byte	0
 1341 00cf 12       		.uleb128 0x12
 1342 00d0 26       		.uleb128 0x26
 1343 00d1 00       		.byte	0
 1344 00d2 49       		.uleb128 0x49
 1345 00d3 13       		.uleb128 0x13
 1346 00d4 00       		.byte	0
 1347 00d5 00       		.byte	0
 1348 00d6 13       		.uleb128 0x13
 1349 00d7 2E       		.uleb128 0x2e
 1350 00d8 01       		.byte	0x1
 1351 00d9 03       		.uleb128 0x3
 1352 00da 0E       		.uleb128 0xe
 1353 00db 3A       		.uleb128 0x3a
 1354 00dc 0B       		.uleb128 0xb
 1355 00dd 3B       		.uleb128 0x3b
 1356 00de 0B       		.uleb128 0xb
 1357 00df 27       		.uleb128 0x27
 1358 00e0 19       		.uleb128 0x19
 1359 00e1 11       		.uleb128 0x11
 1360 00e2 01       		.uleb128 0x1
 1361 00e3 12       		.uleb128 0x12
 1362 00e4 06       		.uleb128 0x6
 1363 00e5 40       		.uleb128 0x40
 1364 00e6 18       		.uleb128 0x18
ARM GAS  /tmp/ccRn3m4s.s 			page 25


 1365 00e7 9742     		.uleb128 0x2117
 1366 00e9 19       		.uleb128 0x19
 1367 00ea 01       		.uleb128 0x1
 1368 00eb 13       		.uleb128 0x13
 1369 00ec 00       		.byte	0
 1370 00ed 00       		.byte	0
 1371 00ee 14       		.uleb128 0x14
 1372 00ef 05       		.uleb128 0x5
 1373 00f0 00       		.byte	0
 1374 00f1 03       		.uleb128 0x3
 1375 00f2 08       		.uleb128 0x8
 1376 00f3 3A       		.uleb128 0x3a
 1377 00f4 0B       		.uleb128 0xb
 1378 00f5 3B       		.uleb128 0x3b
 1379 00f6 0B       		.uleb128 0xb
 1380 00f7 49       		.uleb128 0x49
 1381 00f8 13       		.uleb128 0x13
 1382 00f9 02       		.uleb128 0x2
 1383 00fa 17       		.uleb128 0x17
 1384 00fb 00       		.byte	0
 1385 00fc 00       		.byte	0
 1386 00fd 15       		.uleb128 0x15
 1387 00fe 34       		.uleb128 0x34
 1388 00ff 00       		.byte	0
 1389 0100 03       		.uleb128 0x3
 1390 0101 08       		.uleb128 0x8
 1391 0102 3A       		.uleb128 0x3a
 1392 0103 0B       		.uleb128 0xb
 1393 0104 3B       		.uleb128 0x3b
 1394 0105 0B       		.uleb128 0xb
 1395 0106 49       		.uleb128 0x49
 1396 0107 13       		.uleb128 0x13
 1397 0108 02       		.uleb128 0x2
 1398 0109 17       		.uleb128 0x17
 1399 010a 00       		.byte	0
 1400 010b 00       		.byte	0
 1401 010c 16       		.uleb128 0x16
 1402 010d 0B       		.uleb128 0xb
 1403 010e 01       		.byte	0x1
 1404 010f 55       		.uleb128 0x55
 1405 0110 17       		.uleb128 0x17
 1406 0111 01       		.uleb128 0x1
 1407 0112 13       		.uleb128 0x13
 1408 0113 00       		.byte	0
 1409 0114 00       		.byte	0
 1410 0115 17       		.uleb128 0x17
 1411 0116 34       		.uleb128 0x34
 1412 0117 00       		.byte	0
 1413 0118 03       		.uleb128 0x3
 1414 0119 08       		.uleb128 0x8
 1415 011a 3A       		.uleb128 0x3a
 1416 011b 0B       		.uleb128 0xb
 1417 011c 3B       		.uleb128 0x3b
 1418 011d 0B       		.uleb128 0xb
 1419 011e 49       		.uleb128 0x49
 1420 011f 13       		.uleb128 0x13
 1421 0120 02       		.uleb128 0x2
ARM GAS  /tmp/ccRn3m4s.s 			page 26


 1422 0121 18       		.uleb128 0x18
 1423 0122 00       		.byte	0
 1424 0123 00       		.byte	0
 1425 0124 18       		.uleb128 0x18
 1426 0125 0B       		.uleb128 0xb
 1427 0126 01       		.byte	0x1
 1428 0127 11       		.uleb128 0x11
 1429 0128 01       		.uleb128 0x1
 1430 0129 12       		.uleb128 0x12
 1431 012a 06       		.uleb128 0x6
 1432 012b 01       		.uleb128 0x1
 1433 012c 13       		.uleb128 0x13
 1434 012d 00       		.byte	0
 1435 012e 00       		.byte	0
 1436 012f 19       		.uleb128 0x19
 1437 0130 898201   		.uleb128 0x4109
 1438 0133 00       		.byte	0
 1439 0134 11       		.uleb128 0x11
 1440 0135 01       		.uleb128 0x1
 1441 0136 31       		.uleb128 0x31
 1442 0137 13       		.uleb128 0x13
 1443 0138 00       		.byte	0
 1444 0139 00       		.byte	0
 1445 013a 1A       		.uleb128 0x1a
 1446 013b 898201   		.uleb128 0x4109
 1447 013e 01       		.byte	0x1
 1448 013f 11       		.uleb128 0x11
 1449 0140 01       		.uleb128 0x1
 1450 0141 31       		.uleb128 0x31
 1451 0142 13       		.uleb128 0x13
 1452 0143 01       		.uleb128 0x1
 1453 0144 13       		.uleb128 0x13
 1454 0145 00       		.byte	0
 1455 0146 00       		.byte	0
 1456 0147 1B       		.uleb128 0x1b
 1457 0148 8A8201   		.uleb128 0x410a
 1458 014b 00       		.byte	0
 1459 014c 02       		.uleb128 0x2
 1460 014d 18       		.uleb128 0x18
 1461 014e 9142     		.uleb128 0x2111
 1462 0150 18       		.uleb128 0x18
 1463 0151 00       		.byte	0
 1464 0152 00       		.byte	0
 1465 0153 1C       		.uleb128 0x1c
 1466 0154 2E       		.uleb128 0x2e
 1467 0155 01       		.byte	0x1
 1468 0156 3F       		.uleb128 0x3f
 1469 0157 19       		.uleb128 0x19
 1470 0158 03       		.uleb128 0x3
 1471 0159 0E       		.uleb128 0xe
 1472 015a 3A       		.uleb128 0x3a
 1473 015b 0B       		.uleb128 0xb
 1474 015c 3B       		.uleb128 0x3b
 1475 015d 0B       		.uleb128 0xb
 1476 015e 27       		.uleb128 0x27
 1477 015f 19       		.uleb128 0x19
 1478 0160 11       		.uleb128 0x11
ARM GAS  /tmp/ccRn3m4s.s 			page 27


 1479 0161 01       		.uleb128 0x1
 1480 0162 12       		.uleb128 0x12
 1481 0163 06       		.uleb128 0x6
 1482 0164 40       		.uleb128 0x40
 1483 0165 18       		.uleb128 0x18
 1484 0166 9742     		.uleb128 0x2117
 1485 0168 19       		.uleb128 0x19
 1486 0169 01       		.uleb128 0x1
 1487 016a 13       		.uleb128 0x13
 1488 016b 00       		.byte	0
 1489 016c 00       		.byte	0
 1490 016d 1D       		.uleb128 0x1d
 1491 016e 2E       		.uleb128 0x2e
 1492 016f 00       		.byte	0
 1493 0170 3F       		.uleb128 0x3f
 1494 0171 19       		.uleb128 0x19
 1495 0172 03       		.uleb128 0x3
 1496 0173 0E       		.uleb128 0xe
 1497 0174 3A       		.uleb128 0x3a
 1498 0175 0B       		.uleb128 0xb
 1499 0176 3B       		.uleb128 0x3b
 1500 0177 0B       		.uleb128 0xb
 1501 0178 27       		.uleb128 0x27
 1502 0179 19       		.uleb128 0x19
 1503 017a 3C       		.uleb128 0x3c
 1504 017b 19       		.uleb128 0x19
 1505 017c 00       		.byte	0
 1506 017d 00       		.byte	0
 1507 017e 1E       		.uleb128 0x1e
 1508 017f 2E       		.uleb128 0x2e
 1509 0180 01       		.byte	0x1
 1510 0181 3F       		.uleb128 0x3f
 1511 0182 19       		.uleb128 0x19
 1512 0183 03       		.uleb128 0x3
 1513 0184 0E       		.uleb128 0xe
 1514 0185 3A       		.uleb128 0x3a
 1515 0186 0B       		.uleb128 0xb
 1516 0187 3B       		.uleb128 0x3b
 1517 0188 0B       		.uleb128 0xb
 1518 0189 27       		.uleb128 0x27
 1519 018a 19       		.uleb128 0x19
 1520 018b 3C       		.uleb128 0x3c
 1521 018c 19       		.uleb128 0x19
 1522 018d 01       		.uleb128 0x1
 1523 018e 13       		.uleb128 0x13
 1524 018f 00       		.byte	0
 1525 0190 00       		.byte	0
 1526 0191 1F       		.uleb128 0x1f
 1527 0192 2E       		.uleb128 0x2e
 1528 0193 01       		.byte	0x1
 1529 0194 3F       		.uleb128 0x3f
 1530 0195 19       		.uleb128 0x19
 1531 0196 03       		.uleb128 0x3
 1532 0197 0E       		.uleb128 0xe
 1533 0198 3A       		.uleb128 0x3a
 1534 0199 0B       		.uleb128 0xb
 1535 019a 3B       		.uleb128 0x3b
ARM GAS  /tmp/ccRn3m4s.s 			page 28


 1536 019b 0B       		.uleb128 0xb
 1537 019c 27       		.uleb128 0x27
 1538 019d 19       		.uleb128 0x19
 1539 019e 3C       		.uleb128 0x3c
 1540 019f 19       		.uleb128 0x19
 1541 01a0 00       		.byte	0
 1542 01a1 00       		.byte	0
 1543 01a2 00       		.byte	0
 1544              		.section	.debug_loc,"",%progbits
 1545              	.Ldebug_loc0:
 1546              	.LLST0:
 1547 0000 00000000 		.4byte	.LVL0
 1548 0004 0D000000 		.4byte	.LVL2-1
 1549 0008 0100     		.2byte	0x1
 1550 000a 50       		.byte	0x50
 1551 000b 0D000000 		.4byte	.LVL2-1
 1552 000f 30000000 		.4byte	.LVL6
 1553 0013 0100     		.2byte	0x1
 1554 0015 54       		.byte	0x54
 1555 0016 30000000 		.4byte	.LVL6
 1556 001a 34000000 		.4byte	.LFE7
 1557 001e 0400     		.2byte	0x4
 1558 0020 F3       		.byte	0xf3
 1559 0021 01       		.uleb128 0x1
 1560 0022 50       		.byte	0x50
 1561 0023 9F       		.byte	0x9f
 1562 0024 00000000 		.4byte	0
 1563 0028 00000000 		.4byte	0
 1564              	.LLST1:
 1565 002c 06000000 		.4byte	.LVL1
 1566 0030 0D000000 		.4byte	.LVL2-1
 1567 0034 0100     		.2byte	0x1
 1568 0036 50       		.byte	0x50
 1569 0037 0D000000 		.4byte	.LVL2-1
 1570 003b 30000000 		.4byte	.LVL6
 1571 003f 0100     		.2byte	0x1
 1572 0041 54       		.byte	0x54
 1573 0042 30000000 		.4byte	.LVL6
 1574 0046 34000000 		.4byte	.LFE7
 1575 004a 0400     		.2byte	0x4
 1576 004c F3       		.byte	0xf3
 1577 004d 01       		.uleb128 0x1
 1578 004e 50       		.byte	0x50
 1579 004f 9F       		.byte	0x9f
 1580 0050 00000000 		.4byte	0
 1581 0054 00000000 		.4byte	0
 1582              	.LLST2:
 1583 0058 00000000 		.4byte	.LVL7
 1584 005c 0D000000 		.4byte	.LVL8-1
 1585 0060 0100     		.2byte	0x1
 1586 0062 50       		.byte	0x50
 1587 0063 0D000000 		.4byte	.LVL8-1
 1588 0067 36000000 		.4byte	.LVL13
 1589 006b 0100     		.2byte	0x1
 1590 006d 54       		.byte	0x54
 1591 006e 36000000 		.4byte	.LVL13
 1592 0072 3C000000 		.4byte	.LFE8
ARM GAS  /tmp/ccRn3m4s.s 			page 29


 1593 0076 0400     		.2byte	0x4
 1594 0078 F3       		.byte	0xf3
 1595 0079 01       		.uleb128 0x1
 1596 007a 50       		.byte	0x50
 1597 007b 9F       		.byte	0x9f
 1598 007c 00000000 		.4byte	0
 1599 0080 00000000 		.4byte	0
 1600              	.LLST3:
 1601 0084 00000000 		.4byte	.LVL14
 1602 0088 0D000000 		.4byte	.LVL15-1
 1603 008c 0100     		.2byte	0x1
 1604 008e 50       		.byte	0x50
 1605 008f 0D000000 		.4byte	.LVL15-1
 1606 0093 24000000 		.4byte	.LFE9
 1607 0097 0100     		.2byte	0x1
 1608 0099 54       		.byte	0x54
 1609 009a 00000000 		.4byte	0
 1610 009e 00000000 		.4byte	0
 1611              		.section	.debug_aranges,"",%progbits
 1612 0000 2C000000 		.4byte	0x2c
 1613 0004 0200     		.2byte	0x2
 1614 0006 00000000 		.4byte	.Ldebug_info0
 1615 000a 04       		.byte	0x4
 1616 000b 00       		.byte	0
 1617 000c 0000     		.2byte	0
 1618 000e 0000     		.2byte	0
 1619 0010 00000000 		.4byte	.LFB7
 1620 0014 34000000 		.4byte	.LFE7-.LFB7
 1621 0018 00000000 		.4byte	.LFB8
 1622 001c 3C000000 		.4byte	.LFE8-.LFB8
 1623 0020 00000000 		.4byte	.LFB9
 1624 0024 24000000 		.4byte	.LFE9-.LFB9
 1625 0028 00000000 		.4byte	0
 1626 002c 00000000 		.4byte	0
 1627              		.section	.debug_ranges,"",%progbits
 1628              	.Ldebug_ranges0:
 1629 0000 02000000 		.4byte	.LBB2
 1630 0004 04000000 		.4byte	.LBE2
 1631 0008 06000000 		.4byte	.LBB3
 1632 000c 0A000000 		.4byte	.LBE3
 1633 0010 00000000 		.4byte	0
 1634 0014 00000000 		.4byte	0
 1635 0018 02000000 		.4byte	.LBB5
 1636 001c 04000000 		.4byte	.LBE5
 1637 0020 06000000 		.4byte	.LBB6
 1638 0024 0A000000 		.4byte	.LBE6
 1639 0028 00000000 		.4byte	0
 1640 002c 00000000 		.4byte	0
 1641 0030 16000000 		.4byte	.LBB7
 1642 0034 1E000000 		.4byte	.LBE7
 1643 0038 2E000000 		.4byte	.LBB8
 1644 003c 3C000000 		.4byte	.LBE8
 1645 0040 00000000 		.4byte	0
 1646 0044 00000000 		.4byte	0
 1647 0048 02000000 		.4byte	.LBB9
 1648 004c 04000000 		.4byte	.LBE9
 1649 0050 06000000 		.4byte	.LBB10
ARM GAS  /tmp/ccRn3m4s.s 			page 30


 1650 0054 0A000000 		.4byte	.LBE10
 1651 0058 00000000 		.4byte	0
 1652 005c 00000000 		.4byte	0
 1653 0060 00000000 		.4byte	.LFB7
 1654 0064 34000000 		.4byte	.LFE7
 1655 0068 00000000 		.4byte	.LFB8
 1656 006c 3C000000 		.4byte	.LFE8
 1657 0070 00000000 		.4byte	.LFB9
 1658 0074 24000000 		.4byte	.LFE9
 1659 0078 00000000 		.4byte	0
 1660 007c 00000000 		.4byte	0
 1661              		.section	.debug_line,"",%progbits
 1662              	.Ldebug_line0:
 1663 0000 8E010000 		.section	.debug_str,"MS",%progbits,1
 1663      02004001 
 1663      00000201 
 1663      FB0E0D00 
 1663      01010101 
 1664              	.LASF80:
 1665 0000 65745F69 		.ascii	"et_interval\000"
 1665      6E746572 
 1665      76616C00 
 1666              	.LASF43:
 1667 000c 705F6D73 		.ascii	"p_msg\000"
 1667      6700
 1668              	.LASF73:
 1669 0012 7264796D 		.ascii	"rdymsg\000"
 1669      736700
 1670              	.LASF16:
 1671 0019 75696E74 		.ascii	"uint64_t\000"
 1671      36345F74 
 1671      00
 1672              	.LASF5:
 1673 0022 5F5F7569 		.ascii	"__uint8_t\000"
 1673      6E74385F 
 1673      7400
 1674              	.LASF12:
 1675 002c 6C6F6E67 		.ascii	"long long unsigned int\000"
 1675      206C6F6E 
 1675      6720756E 
 1675      7369676E 
 1675      65642069 
 1676              	.LASF90:
 1677 0043 474E5520 		.ascii	"GNU C 4.9.2 20150128 (prerelease) -mcpu=cortex-m4 -"
 1677      4320342E 
 1677      392E3220 
 1677      32303135 
 1677      30313238 
 1678 0076 6D6E6F2D 		.ascii	"mno-thumb-interwork -mthumb -ggdb -O2 -fomit-frame-"
 1678      7468756D 
 1678      622D696E 
 1678      74657277 
 1678      6F726B20 
 1679 00a9 706F696E 		.ascii	"pointer -falign-functions=16 -ffunction-sections -f"
 1679      74657220 
 1679      2D66616C 
 1679      69676E2D 
ARM GAS  /tmp/ccRn3m4s.s 			page 31


 1679      66756E63 
 1680 00dc 64617461 		.ascii	"data-sections -fno-common\000"
 1680      2D736563 
 1680      74696F6E 
 1680      73202D66 
 1680      6E6F2D63 
 1681              	.LASF74:
 1682 00f6 65786974 		.ascii	"exitcode\000"
 1682      636F6465 
 1682      00
 1683              	.LASF82:
 1684 00ff 65767453 		.ascii	"evtStart\000"
 1684      74617274 
 1684      00
 1685              	.LASF30:
 1686 0108 705F7072 		.ascii	"p_prio\000"
 1686      696F00
 1687              	.LASF10:
 1688 010f 6C6F6E67 		.ascii	"long long int\000"
 1688      206C6F6E 
 1688      6720696E 
 1688      7400
 1689              	.LASF1:
 1690 011d 7369676E 		.ascii	"signed char\000"
 1690      65642063 
 1690      68617200 
 1691              	.LASF81:
 1692 0129 45765469 		.ascii	"EvTimer\000"
 1692      6D657200 
 1693              	.LASF87:
 1694 0131 6462675F 		.ascii	"dbg_check_unlock_from_isr\000"
 1694      63686563 
 1694      6B5F756E 
 1694      6C6F636B 
 1694      5F66726F 
 1695              	.LASF47:
 1696 014b 705F6D70 		.ascii	"p_mpool\000"
 1696      6F6F6C00 
 1697              	.LASF63:
 1698 0153 6D5F7175 		.ascii	"m_queue\000"
 1698      65756500 
 1699              	.LASF21:
 1700 015b 74736C69 		.ascii	"tslices_t\000"
 1700      6365735F 
 1700      7400
 1701              	.LASF7:
 1702 0165 6C6F6E67 		.ascii	"long int\000"
 1702      20696E74 
 1702      00
 1703              	.LASF19:
 1704 016e 74737461 		.ascii	"tstate_t\000"
 1704      74655F74 
 1704      00
 1705              	.LASF84:
 1706 0177 63684576 		.ascii	"chEvtBroadcastFlagsI\000"
 1706      7442726F 
 1706      61646361 
ARM GAS  /tmp/ccRn3m4s.s 			page 32


 1706      7374466C 
 1706      61677349 
 1707              	.LASF32:
 1708 018c 705F6E65 		.ascii	"p_newer\000"
 1708      77657200 
 1709              	.LASF8:
 1710 0194 5F5F7569 		.ascii	"__uint32_t\000"
 1710      6E743332 
 1710      5F7400
 1711              	.LASF50:
 1712 019f 72656761 		.ascii	"regarm_t\000"
 1712      726D5F74 
 1712      00
 1713              	.LASF58:
 1714 01a8 76745F70 		.ascii	"vt_prev\000"
 1714      72657600 
 1715              	.LASF92:
 1716 01b0 2F686F6D 		.ascii	"/home/julien/Documents/telecom/ROSE/JulienRomero/ch"
 1716      652F6A75 
 1716      6C69656E 
 1716      2F446F63 
 1716      756D656E 
 1717 01e3 616C6C65 		.ascii	"allenge2015/ChibiOS_2.6.7/testhal/STM32F4xx/SDC\000"
 1717      6E676532 
 1717      3031352F 
 1717      43686962 
 1717      694F535F 
 1718              	.LASF71:
 1719 0213 4576656E 		.ascii	"EventSource\000"
 1719      74536F75 
 1719      72636500 
 1720              	.LASF35:
 1721 021f 705F7374 		.ascii	"p_stklimit\000"
 1721      6B6C696D 
 1721      697400
 1722              	.LASF0:
 1723 022a 756E7369 		.ascii	"unsigned int\000"
 1723      676E6564 
 1723      20696E74 
 1723      00
 1724              	.LASF57:
 1725 0237 76745F6E 		.ascii	"vt_next\000"
 1725      65787400 
 1726              	.LASF9:
 1727 023f 6C6F6E67 		.ascii	"long unsigned int\000"
 1727      20756E73 
 1727      69676E65 
 1727      6420696E 
 1727      7400
 1728              	.LASF55:
 1729 0251 76746675 		.ascii	"vtfunc_t\000"
 1729      6E635F74 
 1729      00
 1730              	.LASF53:
 1731 025a 636F6E74 		.ascii	"context\000"
 1731      65787400 
 1732              	.LASF4:
ARM GAS  /tmp/ccRn3m4s.s 			page 33


 1733 0262 73686F72 		.ascii	"short unsigned int\000"
 1733      7420756E 
 1733      7369676E 
 1733      65642069 
 1733      6E7400
 1734              	.LASF23:
 1735 0275 6D73675F 		.ascii	"msg_t\000"
 1735      7400
 1736              	.LASF67:
 1737 027b 656C5F6E 		.ascii	"el_next\000"
 1737      65787400 
 1738              	.LASF18:
 1739 0283 746D6F64 		.ascii	"tmode_t\000"
 1739      655F7400 
 1740              	.LASF49:
 1741 028b 54687265 		.ascii	"ThreadsList\000"
 1741      6164734C 
 1741      69737400 
 1742              	.LASF24:
 1743 0297 6576656E 		.ascii	"eventmask_t\000"
 1743      746D6173 
 1743      6B5F7400 
 1744              	.LASF62:
 1745 02a3 4D757465 		.ascii	"Mutex\000"
 1745      7800
 1746              	.LASF51:
 1747 02a9 73746B61 		.ascii	"stkalign_t\000"
 1747      6C69676E 
 1747      5F7400
 1748              	.LASF59:
 1749 02b4 76745F74 		.ascii	"vt_time\000"
 1749      696D6500 
 1750              	.LASF89:
 1751 02bc 6462675F 		.ascii	"dbg_check_unlock\000"
 1751      63686563 
 1751      6B5F756E 
 1751      6C6F636B 
 1751      00
 1752              	.LASF79:
 1753 02cd 65745F65 		.ascii	"et_es\000"
 1753      7300
 1754              	.LASF54:
 1755 02d3 73697A65 		.ascii	"sizetype\000"
 1755      74797065 
 1755      00
 1756              	.LASF60:
 1757 02dc 76745F66 		.ascii	"vt_func\000"
 1757      756E6300 
 1758              	.LASF85:
 1759 02e4 63685654 		.ascii	"chVTSetI\000"
 1759      53657449 
 1759      00
 1760              	.LASF33:
 1761 02ed 705F6F6C 		.ascii	"p_older\000"
 1761      64657200 
 1762              	.LASF48:
 1763 02f5 54687265 		.ascii	"ThreadsQueue\000"
ARM GAS  /tmp/ccRn3m4s.s 			page 34


 1763      61647351 
 1763      75657565 
 1763      00
 1764              	.LASF88:
 1765 0302 6462675F 		.ascii	"dbg_check_lock\000"
 1765      63686563 
 1765      6B5F6C6F 
 1765      636B00
 1766              	.LASF69:
 1767 0311 656C5F6D 		.ascii	"el_mask\000"
 1767      61736B00 
 1768              	.LASF11:
 1769 0319 5F5F7569 		.ascii	"__uint64_t\000"
 1769      6E743634 
 1769      5F7400
 1770              	.LASF91:
 1771 0324 2E2E2F2E 		.ascii	"../../../os/various/evtimer.c\000"
 1771      2E2F2E2E 
 1771      2F6F732F 
 1771      76617269 
 1771      6F75732F 
 1772              	.LASF20:
 1773 0342 74726566 		.ascii	"trefs_t\000"
 1773      735F7400 
 1774              	.LASF29:
 1775 034a 705F7072 		.ascii	"p_prev\000"
 1775      657600
 1776              	.LASF22:
 1777 0351 74707269 		.ascii	"tprio_t\000"
 1777      6F5F7400 
 1778              	.LASF17:
 1779 0359 5F426F6F 		.ascii	"_Bool\000"
 1779      6C00
 1780              	.LASF14:
 1781 035f 696E7433 		.ascii	"int32_t\000"
 1781      325F7400 
 1782              	.LASF2:
 1783 0367 756E7369 		.ascii	"unsigned char\000"
 1783      676E6564 
 1783      20636861 
 1783      7200
 1784              	.LASF68:
 1785 0375 656C5F6C 		.ascii	"el_listener\000"
 1785      69737465 
 1785      6E657200 
 1786              	.LASF70:
 1787 0381 656C5F66 		.ascii	"el_flags\000"
 1787      6C616773 
 1787      00
 1788              	.LASF45:
 1789 038a 705F6D74 		.ascii	"p_mtxlist\000"
 1789      786C6973 
 1789      7400
 1790              	.LASF3:
 1791 0394 73686F72 		.ascii	"short int\000"
 1791      7420696E 
 1791      7400
ARM GAS  /tmp/ccRn3m4s.s 			page 35


 1792              	.LASF36:
 1793 039e 705F7374 		.ascii	"p_state\000"
 1793      61746500 
 1794              	.LASF39:
 1795 03a6 705F7072 		.ascii	"p_preempt\000"
 1795      65656D70 
 1795      7400
 1796              	.LASF76:
 1797 03b0 65776D61 		.ascii	"ewmask\000"
 1797      736B00
 1798              	.LASF28:
 1799 03b7 705F6E65 		.ascii	"p_next\000"
 1799      787400
 1800              	.LASF37:
 1801 03be 705F666C 		.ascii	"p_flags\000"
 1801      61677300 
 1802              	.LASF27:
 1803 03c6 54687265 		.ascii	"Thread\000"
 1803      616400
 1804              	.LASF94:
 1805 03cd 63685654 		.ascii	"chVTResetI\000"
 1805      52657365 
 1805      744900
 1806              	.LASF44:
 1807 03d8 705F6570 		.ascii	"p_epending\000"
 1807      656E6469 
 1807      6E6700
 1808              	.LASF15:
 1809 03e3 75696E74 		.ascii	"uint32_t\000"
 1809      33325F74 
 1809      00
 1810              	.LASF56:
 1811 03ec 56697274 		.ascii	"VirtualTimer\000"
 1811      75616C54 
 1811      696D6572 
 1811      00
 1812              	.LASF77:
 1813 03f9 63686172 		.ascii	"char\000"
 1813      00
 1814              	.LASF93:
 1815 03fe 746D7263 		.ascii	"tmrcb\000"
 1815      6200
 1816              	.LASF65:
 1817 0404 6D5F6E65 		.ascii	"m_next\000"
 1817      787400
 1818              	.LASF26:
 1819 040b 73797374 		.ascii	"systime_t\000"
 1819      696D655F 
 1819      7400
 1820              	.LASF46:
 1821 0415 705F7265 		.ascii	"p_realprio\000"
 1821      616C7072 
 1821      696F00
 1822              	.LASF6:
 1823 0420 5F5F696E 		.ascii	"__int32_t\000"
 1823      7433325F 
 1823      7400
ARM GAS  /tmp/ccRn3m4s.s 			page 36


 1824              	.LASF83:
 1825 042a 65767453 		.ascii	"evtStop\000"
 1825      746F7000 
 1826              	.LASF40:
 1827 0432 705F7469 		.ascii	"p_time\000"
 1827      6D6500
 1828              	.LASF52:
 1829 0439 696E7463 		.ascii	"intctx\000"
 1829      747800
 1830              	.LASF42:
 1831 0440 705F6D73 		.ascii	"p_msgqueue\000"
 1831      67717565 
 1831      756500
 1832              	.LASF61:
 1833 044b 76745F70 		.ascii	"vt_par\000"
 1833      617200
 1834              	.LASF25:
 1835 0452 666C6167 		.ascii	"flagsmask_t\000"
 1835      736D6173 
 1835      6B5F7400 
 1836              	.LASF38:
 1837 045e 705F7265 		.ascii	"p_refs\000"
 1837      667300
 1838              	.LASF13:
 1839 0465 75696E74 		.ascii	"uint8_t\000"
 1839      385F7400 
 1840              	.LASF86:
 1841 046d 6462675F 		.ascii	"dbg_check_lock_from_isr\000"
 1841      63686563 
 1841      6B5F6C6F 
 1841      636B5F66 
 1841      726F6D5F 
 1842              	.LASF66:
 1843 0485 4576656E 		.ascii	"EventListener\000"
 1843      744C6973 
 1843      74656E65 
 1843      7200
 1844              	.LASF75:
 1845 0493 77746F62 		.ascii	"wtobjp\000"
 1845      6A7000
 1846              	.LASF34:
 1847 049a 705F6E61 		.ascii	"p_name\000"
 1847      6D6500
 1848              	.LASF72:
 1849 04a1 65735F6E 		.ascii	"es_next\000"
 1849      65787400 
 1850              	.LASF78:
 1851 04a9 65745F76 		.ascii	"et_vt\000"
 1851      7400
 1852              	.LASF64:
 1853 04af 6D5F6F77 		.ascii	"m_owner\000"
 1853      6E657200 
 1854              	.LASF31:
 1855 04b7 705F6374 		.ascii	"p_ctx\000"
 1855      7800
 1856              	.LASF41:
 1857 04bd 705F7761 		.ascii	"p_waiting\000"
ARM GAS  /tmp/ccRn3m4s.s 			page 37


 1857      6974696E 
 1857      6700
 1858              		.ident	"GCC: (Arch Repository) 4.9.2 20150128 (prerelease)"
ARM GAS  /tmp/ccRn3m4s.s 			page 38


DEFINED SYMBOLS
                            *ABS*:0000000000000000 evtimer.c
     /tmp/ccRn3m4s.s:19     .text.tmrcb:0000000000000000 $t
     /tmp/ccRn3m4s.s:24     .text.tmrcb:0000000000000000 tmrcb
     /tmp/ccRn3m4s.s:78     .text.tmrcb:0000000000000030 $d
     /tmp/ccRn3m4s.s:84     .text.evtStart:0000000000000000 $t
     /tmp/ccRn3m4s.s:90     .text.evtStart:0000000000000000 evtStart
     /tmp/ccRn3m4s.s:153    .text.evtStart:0000000000000038 $d
     /tmp/ccRn3m4s.s:159    .text.evtStop:0000000000000000 $t
     /tmp/ccRn3m4s.s:165    .text.evtStop:0000000000000000 evtStop
                     .debug_frame:0000000000000010 $d
     /tmp/ccRn3m4s.s:83     .text.tmrcb:0000000000000034 $t
     /tmp/ccRn3m4s.s:158    .text.evtStart:000000000000003c $t

UNDEFINED SYMBOLS
dbg_check_lock_from_isr
chEvtBroadcastFlagsI
chVTSetI
dbg_check_unlock_from_isr
dbg_check_lock
dbg_check_unlock
chVTResetI
