ARM GAS  /tmp/ccyEri1H.s 			page 1


   1              		.syntax unified
   2              		.cpu cortex-m4
   3              		.fpu softvfp
   4              		.eabi_attribute 20, 1
   5              		.eabi_attribute 21, 1
   6              		.eabi_attribute 23, 3
   7              		.eabi_attribute 24, 1
   8              		.eabi_attribute 25, 1
   9              		.eabi_attribute 26, 1
  10              		.eabi_attribute 30, 2
  11              		.eabi_attribute 34, 1
  12              		.eabi_attribute 18, 4
  13              		.thumb
  14              		.file	"fatfs_diskio.c"
  15              		.text
  16              	.Ltext0:
  17              		.cfi_sections	.debug_frame
  18              		.section	.text.disk_initialize,"ax",%progbits
  19              		.align	2
  20              		.p2align 4,,15
  21              		.global	disk_initialize
  22              		.thumb
  23              		.thumb_func
  24              		.type	disk_initialize, %function
  25              	disk_initialize:
  26              	.LFB118:
  27              		.file 1 "../../../os/various/fatfs_bindings/fatfs_diskio.c"
  28              		.loc 1 44 0
  29              		.cfi_startproc
  30              		@ args = 0, pretend = 0, frame = 0
  31              		@ frame_needed = 0, uses_anonymous_args = 0
  32              	.LVL0:
  33 0000 10B5     		push	{r4, lr}
  34              		.cfi_def_cfa_offset 8
  35              		.cfi_offset 4, -8
  36              		.cfi_offset 14, -4
  37              		.loc 1 47 0
  38 0002 10B1     		cbz	r0, .L11
  39              		.loc 1 68 0
  40 0004 0224     		movs	r4, #2
  41              	.LVL1:
  42              	.L2:
  43              		.loc 1 69 0
  44 0006 2046     		mov	r0, r4
  45 0008 10BD     		pop	{r4, pc}
  46              	.LVL2:
  47              	.L11:
  48              		.loc 1 61 0
  49 000a 0748     		ldr	r0, .L12
  50              	.LVL3:
  51 000c 0479     		ldrb	r4, [r0, #4]	@ zero_extendqisi2
  52              		.loc 1 59 0
  53 000e 053C     		subs	r4, r4, #5
  54 0010 18BF     		it	ne
  55 0012 0124     		movne	r4, #1
  56              	.LVL4:
  57              		.loc 1 63 0
ARM GAS  /tmp/ccyEri1H.s 			page 2


  58 0014 FFF7FEFF 		bl	sdc_lld_is_write_protected
  59              	.LVL5:
  60 0018 0028     		cmp	r0, #0
  61 001a F4D0     		beq	.L2
  62              		.loc 1 64 0
  63 001c 44F00404 		orr	r4, r4, #4
  64              	.LVL6:
  65 0020 E4B2     		uxtb	r4, r4
  66              		.loc 1 69 0
  67 0022 2046     		mov	r0, r4
  68 0024 10BD     		pop	{r4, pc}
  69              	.L13:
  70 0026 00BF     		.align	2
  71              	.L12:
  72 0028 00000000 		.word	SDCD1
  73              		.cfi_endproc
  74              	.LFE118:
  75              		.size	disk_initialize, .-disk_initialize
  76 002c AFF30080 		.section	.text.disk_status,"ax",%progbits
  77              		.align	2
  78              		.p2align 4,,15
  79              		.global	disk_status
  80              		.thumb
  81              		.thumb_func
  82              		.type	disk_status, %function
  83              	disk_status:
  84              	.LFB119:
  85              		.loc 1 79 0
  86              		.cfi_startproc
  87              		@ args = 0, pretend = 0, frame = 0
  88              		@ frame_needed = 0, uses_anonymous_args = 0
  89              	.LVL7:
  90 0000 10B5     		push	{r4, lr}
  91              		.cfi_def_cfa_offset 8
  92              		.cfi_offset 4, -8
  93              		.cfi_offset 14, -4
  94              		.loc 1 82 0
  95 0002 10B1     		cbz	r0, .L23
  96              		.loc 1 103 0
  97 0004 0224     		movs	r4, #2
  98              	.LVL8:
  99              	.L15:
 100              		.loc 1 104 0
 101 0006 2046     		mov	r0, r4
 102 0008 10BD     		pop	{r4, pc}
 103              	.LVL9:
 104              	.L23:
 105              		.loc 1 96 0
 106 000a 0748     		ldr	r0, .L24
 107              	.LVL10:
 108 000c 0479     		ldrb	r4, [r0, #4]	@ zero_extendqisi2
 109              		.loc 1 94 0
 110 000e 053C     		subs	r4, r4, #5
 111 0010 18BF     		it	ne
 112 0012 0124     		movne	r4, #1
 113              	.LVL11:
 114              		.loc 1 98 0
ARM GAS  /tmp/ccyEri1H.s 			page 3


 115 0014 FFF7FEFF 		bl	sdc_lld_is_write_protected
 116              	.LVL12:
 117 0018 0028     		cmp	r0, #0
 118 001a F4D0     		beq	.L15
 119              		.loc 1 99 0
 120 001c 44F00404 		orr	r4, r4, #4
 121              	.LVL13:
 122 0020 E4B2     		uxtb	r4, r4
 123              		.loc 1 104 0
 124 0022 2046     		mov	r0, r4
 125 0024 10BD     		pop	{r4, pc}
 126              	.L25:
 127 0026 00BF     		.align	2
 128              	.L24:
 129 0028 00000000 		.word	SDCD1
 130              		.cfi_endproc
 131              	.LFE119:
 132              		.size	disk_status, .-disk_status
 133 002c AFF30080 		.section	.text.disk_read,"ax",%progbits
 134              		.align	2
 135              		.p2align 4,,15
 136              		.global	disk_read
 137              		.thumb
 138              		.thumb_func
 139              		.type	disk_read, %function
 140              	disk_read:
 141              	.LFB120:
 142              		.loc 1 117 0
 143              		.cfi_startproc
 144              		@ args = 0, pretend = 0, frame = 0
 145              		@ frame_needed = 0, uses_anonymous_args = 0
 146              		@ link register save eliminated.
 147              	.LVL14:
 148              		.loc 1 118 0
 149 0000 08B1     		cbz	r0, .L33
 150              		.loc 1 143 0
 151 0002 0420     		movs	r0, #4
 152              	.LVL15:
 153              		.loc 1 144 0
 154 0004 7047     		bx	lr
 155              	.LVL16:
 156              	.L33:
 157              		.loc 1 136 0
 158 0006 0848     		ldr	r0, .L35
 159              	.LVL17:
 160              		.loc 1 117 0
 161 0008 10B4     		push	{r4}
 162              		.cfi_def_cfa_offset 4
 163              		.cfi_offset 4, -4
 164 000a 0C46     		mov	r4, r1
 165              		.loc 1 136 0
 166 000c 0179     		ldrb	r1, [r0, #4]	@ zero_extendqisi2
 167              	.LVL18:
 168 000e 0529     		cmp	r1, #5
 169 0010 03D0     		beq	.L34
 170              		.loc 1 137 0
 171 0012 0320     		movs	r0, #3
ARM GAS  /tmp/ccyEri1H.s 			page 4


 172              		.loc 1 144 0
 173 0014 5DF8044B 		ldr	r4, [sp], #4
 174              		.cfi_remember_state
 175              		.cfi_restore 4
 176              		.cfi_def_cfa_offset 0
 177              	.LVL19:
 178 0018 7047     		bx	lr
 179              	.LVL20:
 180              	.L34:
 181              		.cfi_restore_state
 182              		.loc 1 138 0
 183 001a 1146     		mov	r1, r2
 184 001c 2246     		mov	r2, r4
 185              	.LVL21:
 186              		.loc 1 144 0
 187 001e 5DF8044B 		ldr	r4, [sp], #4
 188              		.cfi_restore 4
 189              		.cfi_def_cfa_offset 0
 190              	.LVL22:
 191              		.loc 1 138 0
 192 0022 FFF7FEBF 		b	sdcRead
 193              	.LVL23:
 194              	.L36:
 195 0026 00BF     		.align	2
 196              	.L35:
 197 0028 00000000 		.word	SDCD1
 198              		.cfi_endproc
 199              	.LFE120:
 200              		.size	disk_read, .-disk_read
 201 002c AFF30080 		.section	.text.disk_write,"ax",%progbits
 202              		.align	2
 203              		.p2align 4,,15
 204              		.global	disk_write
 205              		.thumb
 206              		.thumb_func
 207              		.type	disk_write, %function
 208              	disk_write:
 209              	.LFB121:
 210              		.loc 1 158 0
 211              		.cfi_startproc
 212              		@ args = 0, pretend = 0, frame = 0
 213              		@ frame_needed = 0, uses_anonymous_args = 0
 214              		@ link register save eliminated.
 215              	.LVL24:
 216              		.loc 1 159 0
 217 0000 08B1     		cbz	r0, .L44
 218              		.loc 1 186 0
 219 0002 0420     		movs	r0, #4
 220              	.LVL25:
 221              		.loc 1 187 0
 222 0004 7047     		bx	lr
 223              	.LVL26:
 224              	.L44:
 225              		.loc 1 179 0
 226 0006 0848     		ldr	r0, .L46
 227              	.LVL27:
 228              		.loc 1 158 0
ARM GAS  /tmp/ccyEri1H.s 			page 5


 229 0008 10B4     		push	{r4}
 230              		.cfi_def_cfa_offset 4
 231              		.cfi_offset 4, -4
 232 000a 0C46     		mov	r4, r1
 233              		.loc 1 179 0
 234 000c 0179     		ldrb	r1, [r0, #4]	@ zero_extendqisi2
 235              	.LVL28:
 236 000e 0529     		cmp	r1, #5
 237 0010 03D0     		beq	.L45
 238              		.loc 1 180 0
 239 0012 0320     		movs	r0, #3
 240              		.loc 1 187 0
 241 0014 5DF8044B 		ldr	r4, [sp], #4
 242              		.cfi_remember_state
 243              		.cfi_restore 4
 244              		.cfi_def_cfa_offset 0
 245              	.LVL29:
 246 0018 7047     		bx	lr
 247              	.LVL30:
 248              	.L45:
 249              		.cfi_restore_state
 250              		.loc 1 181 0
 251 001a 1146     		mov	r1, r2
 252 001c 2246     		mov	r2, r4
 253              	.LVL31:
 254              		.loc 1 187 0
 255 001e 5DF8044B 		ldr	r4, [sp], #4
 256              		.cfi_restore 4
 257              		.cfi_def_cfa_offset 0
 258              	.LVL32:
 259              		.loc 1 181 0
 260 0022 FFF7FEBF 		b	sdcWrite
 261              	.LVL33:
 262              	.L47:
 263 0026 00BF     		.align	2
 264              	.L46:
 265 0028 00000000 		.word	SDCD1
 266              		.cfi_endproc
 267              	.LFE121:
 268              		.size	disk_write, .-disk_write
 269 002c AFF30080 		.section	.text.disk_ioctl,"ax",%progbits
 270              		.align	2
 271              		.p2align 4,,15
 272              		.global	disk_ioctl
 273              		.thumb
 274              		.thumb_func
 275              		.type	disk_ioctl, %function
 276              	disk_ioctl:
 277              	.LFB122:
 278              		.loc 1 200 0
 279              		.cfi_startproc
 280              		@ args = 0, pretend = 0, frame = 0
 281              		@ frame_needed = 0, uses_anonymous_args = 0
 282              	.LVL34:
 283              		.loc 1 201 0
 284 0000 08B1     		cbz	r0, .L61
 285              		.loc 1 242 0
ARM GAS  /tmp/ccyEri1H.s 			page 6


 286 0002 0420     		movs	r0, #4
 287              	.LVL35:
 288              		.loc 1 243 0
 289 0004 7047     		bx	lr
 290              	.LVL36:
 291              	.L61:
 292              		.loc 1 200 0
 293 0006 08B5     		push	{r3, lr}
 294              		.cfi_def_cfa_offset 8
 295              		.cfi_offset 3, -8
 296              		.cfi_offset 14, -4
 297              		.loc 1 220 0
 298 0008 0429     		cmp	r1, #4
 299 000a 1BD8     		bhi	.L51
 300 000c DFE801F0 		tbb	[pc, r1]
 301              	.L52:
 302 0010 03       		.byte	(.L58-.L52)/2
 303 0011 15       		.byte	(.L53-.L52)/2
 304 0012 10       		.byte	(.L54-.L52)/2
 305 0013 0B       		.byte	(.L55-.L52)/2
 306 0014 05       		.byte	(.L56-.L52)/2
 307 0015 00       		.p2align 1
 308              	.L58:
 309              		.loc 1 222 0
 310 0016 0020     		movs	r0, #0
 311              	.LVL37:
 312              		.loc 1 243 0
 313 0018 08BD     		pop	{r3, pc}
 314              	.LVL38:
 315              	.L56:
 316              		.loc 1 234 0
 317 001a 06CA     		ldmia	r2, {r1, r2}
 318              	.LVL39:
 319 001c 0A48     		ldr	r0, .L62
 320              	.LVL40:
 321 001e FFF7FEFF 		bl	sdcErase
 322              	.LVL41:
 323              		.loc 1 235 0
 324 0022 0020     		movs	r0, #0
 325 0024 08BD     		pop	{r3, pc}
 326              	.LVL42:
 327              	.L55:
 328              		.loc 1 230 0
 329 0026 4FF48073 		mov	r3, #256
 330 002a 1360     		str	r3, [r2]
 331              		.loc 1 231 0
 332 002c 0020     		movs	r0, #0
 333              	.LVL43:
 334 002e 08BD     		pop	{r3, pc}
 335              	.LVL44:
 336              	.L54:
 337              		.loc 1 227 0
 338 0030 4FF40073 		mov	r3, #512
 339 0034 1380     		strh	r3, [r2]	@ movhi
 340              		.loc 1 228 0
 341 0036 0020     		movs	r0, #0
 342              	.LVL45:
ARM GAS  /tmp/ccyEri1H.s 			page 7


 343 0038 08BD     		pop	{r3, pc}
 344              	.LVL46:
 345              	.L53:
 346              		.loc 1 224 0
 347 003a 034B     		ldr	r3, .L62
 348 003c 9B6A     		ldr	r3, [r3, #40]
 349 003e 1360     		str	r3, [r2]
 350              		.loc 1 225 0
 351 0040 0020     		movs	r0, #0
 352              	.LVL47:
 353 0042 08BD     		pop	{r3, pc}
 354              	.LVL48:
 355              	.L51:
 356              		.loc 1 238 0
 357 0044 0420     		movs	r0, #4
 358              	.LVL49:
 359 0046 08BD     		pop	{r3, pc}
 360              	.L63:
 361              		.align	2
 362              	.L62:
 363 0048 00000000 		.word	SDCD1
 364              		.cfi_endproc
 365              	.LFE122:
 366              		.size	disk_ioctl, .-disk_ioctl
 367 004c AFF30080 		.section	.text.get_fattime,"ax",%progbits
 368              		.align	2
 369              		.p2align 4,,15
 370              		.global	get_fattime
 371              		.thumb
 372              		.thumb_func
 373              		.type	get_fattime, %function
 374              	get_fattime:
 375              	.LFB123:
 376              		.loc 1 245 0
 377              		.cfi_startproc
 378              		@ args = 0, pretend = 0, frame = 0
 379              		@ frame_needed = 0, uses_anonymous_args = 0
 380              		@ link register save eliminated.
 381              		.loc 1 251 0
 382 0000 4FF40410 		mov	r0, #2162688
 383 0004 7047     		bx	lr
 384              		.cfi_endproc
 385              	.LFE123:
 386              		.size	get_fattime, .-get_fattime
 387 0006 00BFAFF3 		.text
 387      0080AFF3 
 387      0080
 388              	.Letext0:
 389              		.file 2 "/usr/arm-none-eabi/include/machine/_default_types.h"
 390              		.file 3 "/usr/arm-none-eabi/include/stdint.h"
 391              		.file 4 "../../../os/ports/GCC/ARMCMx/chtypes.h"
 392              		.file 5 "../../../os/kernel/include/chlists.h"
 393              		.file 6 "../../../os/kernel/include/chthreads.h"
 394              		.file 7 "../../../os/ports/GCC/ARMCMx/chcore_v7m.h"
 395              		.file 8 "../../../os/kernel/include/chmtx.h"
 396              		.file 9 "../../../os/hal/platforms/STM32F4xx/stm32f4xx.h"
 397              		.file 10 "../../../os/hal/platforms/STM32F4xx/stm32_dma.h"
ARM GAS  /tmp/ccyEri1H.s 			page 8


 398              		.file 11 "../../../os/hal/include/io_block.h"
 399              		.file 12 "../../../os/hal/platforms/STM32/sdc_lld.h"
 400              		.file 13 "../../../ext/fatfs/src/integer.h"
 401              		.file 14 "../../../ext/fatfs/src/diskio.h"
 402              		.file 15 "../../../os/ports/common/ARMCMx/CMSIS/include/core_cm4.h"
 403              		.file 16 "../../../os/hal/include/sdc.h"