ARM GAS  /tmp/ccdlrrt9.s 			page 1


   1              		.syntax unified
   2              		.cpu cortex-m4
   3              		.fpu softvfp
   4              		.eabi_attribute 20, 1
   5              		.eabi_attribute 21, 1
   6              		.eabi_attribute 23, 3
   7              		.eabi_attribute 24, 1
   8              		.eabi_attribute 25, 1
   9              		.eabi_attribute 26, 1
  10              		.eabi_attribute 30, 2
  11              		.eabi_attribute 34, 1
  12              		.eabi_attribute 18, 4
  13              		.thumb
  14              		.file	"mmcsd.c"
  15              		.text
  16              	.Ltext0:
  17              		.cfi_sections	.debug_frame
  18              		.section	.text.mmcsd_get_slice,"ax",%progbits
  19              		.align	2
  20              		.p2align 4,,15
  21              		.thumb
  22              		.thumb_func
  23              		.type	mmcsd_get_slice, %function
  24              	mmcsd_get_slice:
  25              	.LFB118:
  26              		.file 1 "../../../os/hal/src/mmcsd.c"
  27              		.loc 1 69 0
  28              		.cfi_startproc
  29              		@ args = 0, pretend = 0, frame = 0
  30              		@ frame_needed = 0, uses_anonymous_args = 0
  31              	.LVL0:
  32              		.loc 1 73 0
  33 0000 9142     		cmp	r1, r2
  34              		.loc 1 69 0
  35 0002 70B5     		push	{r4, r5, r6, lr}
  36              		.cfi_def_cfa_offset 16
  37              		.cfi_offset 4, -16
  38              		.cfi_offset 5, -12
  39              		.cfi_offset 6, -8
  40              		.cfi_offset 14, -4
  41              		.loc 1 69 0
  42 0004 0D46     		mov	r5, r1
  43 0006 1446     		mov	r4, r2
  44 0008 0646     		mov	r6, r0
  45              		.loc 1 73 0
  46 000a 15D3     		bcc	.L2
  47              		.loc 1 73 0 is_stmt 0 discriminator 2
  48 000c 8B1A     		subs	r3, r1, r2
  49 000e 1F2B     		cmp	r3, #31
  50 0010 12D8     		bhi	.L2
  51              	.LVL1:
  52              	.L3:
  53              		.loc 1 78 0 is_stmt 1
  54 0012 05F01F03 		and	r3, r5, #31
  55 0016 0133     		adds	r3, r3, #1
  56 0018 0122     		movs	r2, #1
  57 001a 9A40     		lsls	r2, r2, r3
ARM GAS  /tmp/ccdlrrt9.s 			page 2


  58              		.loc 1 77 0
  59 001c 6D09     		lsrs	r5, r5, #5
  60              	.LVL2:
  61              		.loc 1 75 0
  62 001e 6309     		lsrs	r3, r4, #5
  63              	.LVL3:
  64              		.loc 1 81 0
  65 0020 AB42     		cmp	r3, r5
  66              		.loc 1 78 0
  67 0022 02F1FF32 		add	r2, r2, #-1
  68              		.loc 1 76 0
  69 0026 04F01F04 		and	r4, r4, #31
  70              	.LVL4:
  71              		.loc 1 81 0
  72 002a 09D3     		bcc	.L8
  73              		.loc 1 84 0
  74 002c 56F82330 		ldr	r3, [r6, r3, lsl #2]
  75              	.LVL5:
  76 0030 02EA0300 		and	r0, r2, r3
  77 0034 E040     		lsrs	r0, r0, r4
  78              		.loc 1 85 0
  79 0036 70BD     		pop	{r4, r5, r6, pc}
  80              	.LVL6:
  81              	.L2:
  82              		.loc 1 73 0 discriminator 3
  83 0038 0748     		ldr	r0, .L9
  84              	.LVL7:
  85 003a FFF7FEFF 		bl	chDbgPanic
  86              	.LVL8:
  87 003e E8E7     		b	.L3
  88              	.LVL9:
  89              	.L8:
  90              		.loc 1 83 0
  91 0040 56F82500 		ldr	r0, [r6, r5, lsl #2]
  92              		.loc 1 82 0
  93 0044 56F82330 		ldr	r3, [r6, r3, lsl #2]
  94              	.LVL10:
  95              		.loc 1 83 0
  96 0048 1040     		ands	r0, r0, r2
  97 004a C4F12002 		rsb	r2, r4, #32
  98              	.LVL11:
  99              		.loc 1 82 0
 100 004e E340     		lsrs	r3, r3, r4
 101              		.loc 1 83 0
 102 0050 9040     		lsls	r0, r0, r2
 103              		.loc 1 82 0
 104 0052 1843     		orrs	r0, r0, r3
 105 0054 70BD     		pop	{r4, r5, r6, pc}
 106              	.LVL12:
 107              	.L10:
 108 0056 00BF     		.align	2
 109              	.L9:
 110 0058 00000000 		.word	.LC0
 111              		.cfi_endproc
 112              	.LFE118:
 113              		.size	mmcsd_get_slice, .-mmcsd_get_slice
 114 005c AFF30080 		.section	.text.mmcsdGetCapacity,"ax",%progbits
ARM GAS  /tmp/ccdlrrt9.s 			page 3


 115              		.align	2
 116              		.p2align 4,,15
 117              		.global	mmcsdGetCapacity
 118              		.thumb
 119              		.thumb_func
 120              		.type	mmcsdGetCapacity, %function
 121              	mmcsdGetCapacity:
 122              	.LFB119:
 123              		.loc 1 100 0
 124              		.cfi_startproc
 125              		@ args = 0, pretend = 0, frame = 0
 126              		@ frame_needed = 0, uses_anonymous_args = 0
 127              	.LVL13:
 128              		.loc 1 102 0
 129 0000 C368     		ldr	r3, [r0, #12]
 130 0002 9B0F     		lsrs	r3, r3, #30
 131              		.loc 1 100 0
 132 0004 70B5     		push	{r4, r5, r6, lr}
 133              		.cfi_def_cfa_offset 16
 134              		.cfi_offset 4, -16
 135              		.cfi_offset 5, -12
 136              		.cfi_offset 6, -8
 137              		.cfi_offset 14, -4
 138              		.loc 1 100 0
 139 0006 0546     		mov	r5, r0
 140              		.loc 1 102 0
 141 0008 0AD0     		beq	.L13
 142 000a 012B     		cmp	r3, #1
 143 000c 06D1     		bne	.L19
 144              	.LBB2:
 145              		.loc 1 112 0
 146 000e 4521     		movs	r1, #69
 147 0010 3022     		movs	r2, #48
 148 0012 FFF7FEFF 		bl	mmcsd_get_slice
 149              	.LVL14:
 150 0016 0130     		adds	r0, r0, #1
 151 0018 8002     		lsls	r0, r0, #10
 152 001a 70BD     		pop	{r4, r5, r6, pc}
 153              	.LVL15:
 154              	.L19:
 155              		.loc 1 115 0
 156 001c 0020     		movs	r0, #0
 157              	.LVL16:
 158              	.LBE2:
 159              		.loc 1 117 0
 160 001e 70BD     		pop	{r4, r5, r6, pc}
 161              	.LVL17:
 162              	.L13:
 163              	.LBB3:
 164              		.loc 1 106 0
 165 0020 4921     		movs	r1, #73
 166 0022 3E22     		movs	r2, #62
 167 0024 FFF7FEFF 		bl	mmcsd_get_slice
 168              	.LVL18:
 169              		.loc 1 107 0
 170 0028 3121     		movs	r1, #49
 171              		.loc 1 106 0
ARM GAS  /tmp/ccdlrrt9.s 			page 4


 172 002a 0446     		mov	r4, r0
 173              	.LVL19:
 174              		.loc 1 107 0
 175 002c 2F22     		movs	r2, #47
 176 002e 2846     		mov	r0, r5
 177              	.LVL20:
 178 0030 FFF7FEFF 		bl	mmcsd_get_slice
 179              	.LVL21:
 180              		.loc 1 108 0
 181 0034 5321     		movs	r1, #83
 182              		.loc 1 107 0
 183 0036 0646     		mov	r6, r0
 184              	.LVL22:
 185              		.loc 1 108 0
 186 0038 5022     		movs	r2, #80
 187 003a 2846     		mov	r0, r5
 188              	.LVL23:
 189 003c FFF7FEFF 		bl	mmcsd_get_slice
 190              	.LVL24:
 191              		.loc 1 109 0
 192 0040 0236     		adds	r6, r6, #2
 193              	.LVL25:
 194 0042 0134     		adds	r4, r4, #1
 195              	.LVL26:
 196 0044 B440     		lsls	r4, r4, r6
 197              	.LVL27:
 198 0046 0938     		subs	r0, r0, #9
 199              	.LVL28:
 200 0048 04FA00F0 		lsl	r0, r4, r0
 201              	.LVL29:
 202 004c 70BD     		pop	{r4, r5, r6, pc}
 203              	.LBE3:
 204              		.cfi_endproc
 205              	.LFE119:
 206              		.size	mmcsdGetCapacity, .-mmcsdGetCapacity
 207 004e 00BF     		.section	.rodata.str1.4,"aMS",%progbits,1
 208              		.align	2
 209              	.LC0:
 210 0000 226D6D63 		.ascii	"\"mmcsd_get_slice\"()\000"
 210      73645F67 
 210      65745F73 
 210      6C696365 
 210      22282900 
 211              		.text
 212              	.Letext0:
 213              		.file 2 "/usr/arm-none-eabi/include/machine/_default_types.h"
 214              		.file 3 "/usr/arm-none-eabi/include/stdint.h"
 215              		.file 4 "../../../os/ports/common/ARMCMx/CMSIS/include/core_cm4.h"
 216              		.file 5 "../../../os/kernel/include/chdebug.h"
 217              		.section	.debug_info,"",%progbits
 218              	.Ldebug_info0:
 219 0000 3A020000 		.4byte	0x23a
 220 0004 0400     		.2byte	0x4
 221 0006 00000000 		.4byte	.Ldebug_abbrev0
 222 000a 04       		.byte	0x4
 223 000b 01       		.uleb128 0x1
 224 000c 00000000 		.4byte	.LASF22
ARM GAS  /tmp/ccdlrrt9.s 			page 5


 225 0010 01       		.byte	0x1
 226 0011 22020000 		.4byte	.LASF23
 227 0015 E1000000 		.4byte	.LASF24
 228 0019 18000000 		.4byte	.Ldebug_ranges0+0x18
 229 001d 00000000 		.4byte	0
 230 0021 00000000 		.4byte	.Ldebug_line0
 231 0025 02       		.uleb128 0x2
 232 0026 04       		.byte	0x4
 233 0027 05       		.byte	0x5
 234 0028 696E7400 		.ascii	"int\000"
 235 002c 03       		.uleb128 0x3
 236 002d 04       		.byte	0x4
 237 002e 07       		.byte	0x7
 238 002f A7010000 		.4byte	.LASF0
 239 0033 03       		.uleb128 0x3
 240 0034 01       		.byte	0x1
 241 0035 06       		.byte	0x6
 242 0036 10020000 		.4byte	.LASF1
 243 003a 03       		.uleb128 0x3
 244 003b 01       		.byte	0x1
 245 003c 08       		.byte	0x8
 246 003d 54010000 		.4byte	.LASF2
 247 0041 03       		.uleb128 0x3
 248 0042 02       		.byte	0x2
 249 0043 05       		.byte	0x5
 250 0044 E3010000 		.4byte	.LASF3
 251 0048 03       		.uleb128 0x3
 252 0049 02       		.byte	0x2
 253 004a 07       		.byte	0x7
 254 004b 74010000 		.4byte	.LASF4
 255 004f 04       		.uleb128 0x4
 256 0050 B3000000 		.4byte	.LASF6
 257 0054 02       		.byte	0x2
 258 0055 3F       		.byte	0x3f
 259 0056 5A000000 		.4byte	0x5a
 260 005a 03       		.uleb128 0x3
 261 005b 04       		.byte	0x4
 262 005c 05       		.byte	0x5
 263 005d F6010000 		.4byte	.LASF5
 264 0061 04       		.uleb128 0x4
 265 0062 94010000 		.4byte	.LASF7
 266 0066 02       		.byte	0x2
 267 0067 41       		.byte	0x41
 268 0068 6C000000 		.4byte	0x6c
 269 006c 03       		.uleb128 0x3
 270 006d 04       		.byte	0x4
 271 006e 07       		.byte	0x7
 272 006f 62010000 		.4byte	.LASF8
 273 0073 03       		.uleb128 0x3
 274 0074 08       		.byte	0x8
 275 0075 05       		.byte	0x5
 276 0076 CA010000 		.4byte	.LASF9
 277 007a 03       		.uleb128 0x3
 278 007b 08       		.byte	0x8
 279 007c 07       		.byte	0x7
 280 007d 3E020000 		.4byte	.LASF10
 281 0081 04       		.uleb128 0x4
ARM GAS  /tmp/ccdlrrt9.s 			page 6


 282 0082 B9010000 		.4byte	.LASF11
 283 0086 03       		.byte	0x3
 284 0087 2C       		.byte	0x2c
 285 0088 4F000000 		.4byte	0x4f
 286 008c 04       		.uleb128 0x4
 287 008d ED010000 		.4byte	.LASF12
 288 0091 03       		.byte	0x3
 289 0092 2D       		.byte	0x2d
 290 0093 61000000 		.4byte	0x61
 291 0097 03       		.uleb128 0x3
 292 0098 01       		.byte	0x1
 293 0099 02       		.byte	0x2
 294 009a 1C020000 		.4byte	.LASF13
 295 009e 03       		.uleb128 0x3
 296 009f 04       		.byte	0x4
 297 00a0 07       		.byte	0x7
 298 00a1 C1010000 		.4byte	.LASF14
 299 00a5 05       		.uleb128 0x5
 300 00a6 04       		.byte	0x4
 301 00a7 AB000000 		.4byte	0xab
 302 00ab 06       		.uleb128 0x6
 303 00ac B0000000 		.4byte	0xb0
 304 00b0 03       		.uleb128 0x3
 305 00b1 01       		.byte	0x1
 306 00b2 08       		.byte	0x8
 307 00b3 B4010000 		.4byte	.LASF15
 308 00b7 07       		.uleb128 0x7
 309 00b8 81000000 		.4byte	0x81
 310 00bc 08       		.uleb128 0x8
 311 00bd 44010000 		.4byte	.LASF25
 312 00c1 01       		.byte	0x1
 313 00c2 45       		.byte	0x45
 314 00c3 8C000000 		.4byte	0x8c
 315 00c7 00000000 		.4byte	.LFB118
 316 00cb 5C000000 		.4byte	.LFE118-.LFB118
 317 00cf 01       		.uleb128 0x1
 318 00d0 9C       		.byte	0x9c
 319 00d1 52010000 		.4byte	0x152
 320 00d5 09       		.uleb128 0x9
 321 00d6 C3000000 		.4byte	.LASF16
 322 00da 01       		.byte	0x1
 323 00db 45       		.byte	0x45
 324 00dc 52010000 		.4byte	0x152
 325 00e0 00000000 		.4byte	.LLST0
 326 00e4 0A       		.uleb128 0xa
 327 00e5 656E6400 		.ascii	"end\000"
 328 00e9 01       		.byte	0x1
 329 00ea 45       		.byte	0x45
 330 00eb 8C000000 		.4byte	0x8c
 331 00ef 42000000 		.4byte	.LLST1
 332 00f3 09       		.uleb128 0x9
 333 00f4 BD000000 		.4byte	.LASF17
 334 00f8 01       		.byte	0x1
 335 00f9 45       		.byte	0x45
 336 00fa 8C000000 		.4byte	0x8c
 337 00fe 92000000 		.4byte	.LLST2
 338 0102 0B       		.uleb128 0xb
ARM GAS  /tmp/ccdlrrt9.s 			page 7


 339 0103 D8000000 		.4byte	.LASF18
 340 0107 01       		.byte	0x1
 341 0108 46       		.byte	0x46
 342 0109 2C000000 		.4byte	0x2c
 343 010d E2000000 		.4byte	.LLST3
 344 0111 0B       		.uleb128 0xb
 345 0112 C8000000 		.4byte	.LASF19
 346 0116 01       		.byte	0x1
 347 0117 46       		.byte	0x46
 348 0118 2C000000 		.4byte	0x2c
 349 011c 20010000 		.4byte	.LLST4
 350 0120 0B       		.uleb128 0xb
 351 0121 CF000000 		.4byte	.LASF20
 352 0125 01       		.byte	0x1
 353 0126 46       		.byte	0x46
 354 0127 2C000000 		.4byte	0x2c
 355 012b 4E010000 		.4byte	.LLST5
 356 012f 0B       		.uleb128 0xb
 357 0130 9F010000 		.4byte	.LASF21
 358 0134 01       		.byte	0x1
 359 0135 47       		.byte	0x47
 360 0136 8C000000 		.4byte	0x8c
 361 013a 7C010000 		.4byte	.LLST6
 362 013e 0C       		.uleb128 0xc
 363 013f 3E000000 		.4byte	.LVL8
 364 0143 30020000 		.4byte	0x230
 365 0147 0D       		.uleb128 0xd
 366 0148 01       		.uleb128 0x1
 367 0149 50       		.byte	0x50
 368 014a 05       		.uleb128 0x5
 369 014b 03       		.byte	0x3
 370 014c 00000000 		.4byte	.LC0
 371 0150 00       		.byte	0
 372 0151 00       		.byte	0
 373 0152 05       		.uleb128 0x5
 374 0153 04       		.byte	0x4
 375 0154 8C000000 		.4byte	0x8c
 376 0158 0E       		.uleb128 0xe
 377 0159 FF010000 		.4byte	.LASF26
 378 015d 01       		.byte	0x1
 379 015e 64       		.byte	0x64
 380 015f 8C000000 		.4byte	0x8c
 381 0163 00000000 		.4byte	.LFB119
 382 0167 4E000000 		.4byte	.LFE119-.LFB119
 383 016b 01       		.uleb128 0x1
 384 016c 9C       		.byte	0x9c
 385 016d 24020000 		.4byte	0x224
 386 0171 0A       		.uleb128 0xa
 387 0172 63736400 		.ascii	"csd\000"
 388 0176 01       		.byte	0x1
 389 0177 64       		.byte	0x64
 390 0178 52010000 		.4byte	0x152
 391 017c B0010000 		.4byte	.LLST7
 392 0180 0F       		.uleb128 0xf
 393 0181 00000000 		.4byte	.Ldebug_ranges0+0
 394 0185 10       		.uleb128 0x10
 395 0186 6100     		.ascii	"a\000"
ARM GAS  /tmp/ccdlrrt9.s 			page 8


 396 0188 01       		.byte	0x1
 397 0189 67       		.byte	0x67
 398 018a 8C000000 		.4byte	0x8c
 399 018e FA010000 		.4byte	.LLST8
 400 0192 10       		.uleb128 0x10
 401 0193 6200     		.ascii	"b\000"
 402 0195 01       		.byte	0x1
 403 0196 67       		.byte	0x67
 404 0197 8C000000 		.4byte	0x8c
 405 019b 25020000 		.4byte	.LLST9
 406 019f 10       		.uleb128 0x10
 407 01a0 6300     		.ascii	"c\000"
 408 01a2 01       		.byte	0x1
 409 01a3 67       		.byte	0x67
 410 01a4 8C000000 		.4byte	0x8c
 411 01a8 50020000 		.4byte	.LLST10
 412 01ac 11       		.uleb128 0x11
 413 01ad 16000000 		.4byte	.LVL14
 414 01b1 BC000000 		.4byte	0xbc
 415 01b5 CC010000 		.4byte	0x1cc
 416 01b9 0D       		.uleb128 0xd
 417 01ba 01       		.uleb128 0x1
 418 01bb 52       		.byte	0x52
 419 01bc 02       		.uleb128 0x2
 420 01bd 08       		.byte	0x8
 421 01be 30       		.byte	0x30
 422 01bf 0D       		.uleb128 0xd
 423 01c0 01       		.uleb128 0x1
 424 01c1 51       		.byte	0x51
 425 01c2 02       		.uleb128 0x2
 426 01c3 08       		.byte	0x8
 427 01c4 45       		.byte	0x45
 428 01c5 0D       		.uleb128 0xd
 429 01c6 01       		.uleb128 0x1
 430 01c7 50       		.byte	0x50
 431 01c8 02       		.uleb128 0x2
 432 01c9 75       		.byte	0x75
 433 01ca 00       		.sleb128 0
 434 01cb 00       		.byte	0
 435 01cc 11       		.uleb128 0x11
 436 01cd 28000000 		.4byte	.LVL18
 437 01d1 BC000000 		.4byte	0xbc
 438 01d5 E6010000 		.4byte	0x1e6
 439 01d9 0D       		.uleb128 0xd
 440 01da 01       		.uleb128 0x1
 441 01db 52       		.byte	0x52
 442 01dc 02       		.uleb128 0x2
 443 01dd 08       		.byte	0x8
 444 01de 3E       		.byte	0x3e
 445 01df 0D       		.uleb128 0xd
 446 01e0 01       		.uleb128 0x1
 447 01e1 51       		.byte	0x51
 448 01e2 02       		.uleb128 0x2
 449 01e3 08       		.byte	0x8
 450 01e4 49       		.byte	0x49
 451 01e5 00       		.byte	0
 452 01e6 11       		.uleb128 0x11
ARM GAS  /tmp/ccdlrrt9.s 			page 9


 453 01e7 34000000 		.4byte	.LVL21
 454 01eb BC000000 		.4byte	0xbc
 455 01ef 06020000 		.4byte	0x206
 456 01f3 0D       		.uleb128 0xd
 457 01f4 01       		.uleb128 0x1
 458 01f5 52       		.byte	0x52
 459 01f6 02       		.uleb128 0x2
 460 01f7 08       		.byte	0x8
 461 01f8 2F       		.byte	0x2f
 462 01f9 0D       		.uleb128 0xd
 463 01fa 01       		.uleb128 0x1
 464 01fb 51       		.byte	0x51
 465 01fc 02       		.uleb128 0x2
 466 01fd 08       		.byte	0x8
 467 01fe 31       		.byte	0x31
 468 01ff 0D       		.uleb128 0xd
 469 0200 01       		.uleb128 0x1
 470 0201 50       		.byte	0x50
 471 0202 02       		.uleb128 0x2
 472 0203 75       		.byte	0x75
 473 0204 00       		.sleb128 0
 474 0205 00       		.byte	0
 475 0206 0C       		.uleb128 0xc
 476 0207 40000000 		.4byte	.LVL24
 477 020b BC000000 		.4byte	0xbc
 478 020f 0D       		.uleb128 0xd
 479 0210 01       		.uleb128 0x1
 480 0211 52       		.byte	0x52
 481 0212 02       		.uleb128 0x2
 482 0213 08       		.byte	0x8
 483 0214 50       		.byte	0x50
 484 0215 0D       		.uleb128 0xd
 485 0216 01       		.uleb128 0x1
 486 0217 51       		.byte	0x51
 487 0218 02       		.uleb128 0x2
 488 0219 08       		.byte	0x8
 489 021a 53       		.byte	0x53
 490 021b 0D       		.uleb128 0xd
 491 021c 01       		.uleb128 0x1
 492 021d 50       		.byte	0x50
 493 021e 02       		.uleb128 0x2
 494 021f 75       		.byte	0x75
 495 0220 00       		.sleb128 0
 496 0221 00       		.byte	0
 497 0222 00       		.byte	0
 498 0223 00       		.byte	0
 499 0224 12       		.uleb128 0x12
 500 0225 87010000 		.4byte	.LASF27
 501 0229 04       		.byte	0x4
 502 022a 9806     		.2byte	0x698
 503 022c B7000000 		.4byte	0xb7
 504 0230 13       		.uleb128 0x13
 505 0231 D8010000 		.4byte	.LASF28
 506 0235 05       		.byte	0x5
 507 0236 F6       		.byte	0xf6
 508 0237 14       		.uleb128 0x14
 509 0238 A5000000 		.4byte	0xa5
ARM GAS  /tmp/ccdlrrt9.s 			page 10


 510 023c 00       		.byte	0
 511 023d 00       		.byte	0
 512              		.section	.debug_abbrev,"",%progbits
 513              	.Ldebug_abbrev0:
 514 0000 01       		.uleb128 0x1
 515 0001 11       		.uleb128 0x11
 516 0002 01       		.byte	0x1
 517 0003 25       		.uleb128 0x25
 518 0004 0E       		.uleb128 0xe
 519 0005 13       		.uleb128 0x13
 520 0006 0B       		.uleb128 0xb
 521 0007 03       		.uleb128 0x3
 522 0008 0E       		.uleb128 0xe
 523 0009 1B       		.uleb128 0x1b
 524 000a 0E       		.uleb128 0xe
 525 000b 55       		.uleb128 0x55
 526 000c 17       		.uleb128 0x17
 527 000d 11       		.uleb128 0x11
 528 000e 01       		.uleb128 0x1
 529 000f 10       		.uleb128 0x10
 530 0010 17       		.uleb128 0x17
 531 0011 00       		.byte	0
 532 0012 00       		.byte	0
 533 0013 02       		.uleb128 0x2
 534 0014 24       		.uleb128 0x24
 535 0015 00       		.byte	0
 536 0016 0B       		.uleb128 0xb
 537 0017 0B       		.uleb128 0xb
 538 0018 3E       		.uleb128 0x3e
 539 0019 0B       		.uleb128 0xb
 540 001a 03       		.uleb128 0x3
 541 001b 08       		.uleb128 0x8
 542 001c 00       		.byte	0
 543 001d 00       		.byte	0
 544 001e 03       		.uleb128 0x3
 545 001f 24       		.uleb128 0x24
 546 0020 00       		.byte	0
 547 0021 0B       		.uleb128 0xb
 548 0022 0B       		.uleb128 0xb
 549 0023 3E       		.uleb128 0x3e
 550 0024 0B       		.uleb128 0xb
 551 0025 03       		.uleb128 0x3
 552 0026 0E       		.uleb128 0xe
 553 0027 00       		.byte	0
 554 0028 00       		.byte	0
 555 0029 04       		.uleb128 0x4
 556 002a 16       		.uleb128 0x16
 557 002b 00       		.byte	0
 558 002c 03       		.uleb128 0x3
 559 002d 0E       		.uleb128 0xe
 560 002e 3A       		.uleb128 0x3a
 561 002f 0B       		.uleb128 0xb
 562 0030 3B       		.uleb128 0x3b
 563 0031 0B       		.uleb128 0xb
 564 0032 49       		.uleb128 0x49
 565 0033 13       		.uleb128 0x13
 566 0034 00       		.byte	0
ARM GAS  /tmp/ccdlrrt9.s 			page 11


 567 0035 00       		.byte	0
 568 0036 05       		.uleb128 0x5
 569 0037 0F       		.uleb128 0xf
 570 0038 00       		.byte	0
 571 0039 0B       		.uleb128 0xb
 572 003a 0B       		.uleb128 0xb
 573 003b 49       		.uleb128 0x49
 574 003c 13       		.uleb128 0x13
 575 003d 00       		.byte	0
 576 003e 00       		.byte	0
 577 003f 06       		.uleb128 0x6
 578 0040 26       		.uleb128 0x26
 579 0041 00       		.byte	0
 580 0042 49       		.uleb128 0x49
 581 0043 13       		.uleb128 0x13
 582 0044 00       		.byte	0
 583 0045 00       		.byte	0
 584 0046 07       		.uleb128 0x7
 585 0047 35       		.uleb128 0x35
 586 0048 00       		.byte	0
 587 0049 49       		.uleb128 0x49
 588 004a 13       		.uleb128 0x13
 589 004b 00       		.byte	0
 590 004c 00       		.byte	0
 591 004d 08       		.uleb128 0x8
 592 004e 2E       		.uleb128 0x2e
 593 004f 01       		.byte	0x1
 594 0050 03       		.uleb128 0x3
 595 0051 0E       		.uleb128 0xe
 596 0052 3A       		.uleb128 0x3a
 597 0053 0B       		.uleb128 0xb
 598 0054 3B       		.uleb128 0x3b
 599 0055 0B       		.uleb128 0xb
 600 0056 27       		.uleb128 0x27
 601 0057 19       		.uleb128 0x19
 602 0058 49       		.uleb128 0x49
 603 0059 13       		.uleb128 0x13
 604 005a 11       		.uleb128 0x11
 605 005b 01       		.uleb128 0x1
 606 005c 12       		.uleb128 0x12
 607 005d 06       		.uleb128 0x6
 608 005e 40       		.uleb128 0x40
 609 005f 18       		.uleb128 0x18
 610 0060 9742     		.uleb128 0x2117
 611 0062 19       		.uleb128 0x19
 612 0063 01       		.uleb128 0x1
 613 0064 13       		.uleb128 0x13
 614 0065 00       		.byte	0
 615 0066 00       		.byte	0
 616 0067 09       		.uleb128 0x9
 617 0068 05       		.uleb128 0x5
 618 0069 00       		.byte	0
 619 006a 03       		.uleb128 0x3
 620 006b 0E       		.uleb128 0xe
 621 006c 3A       		.uleb128 0x3a
 622 006d 0B       		.uleb128 0xb
 623 006e 3B       		.uleb128 0x3b
ARM GAS  /tmp/ccdlrrt9.s 			page 12


 624 006f 0B       		.uleb128 0xb
 625 0070 49       		.uleb128 0x49
 626 0071 13       		.uleb128 0x13
 627 0072 02       		.uleb128 0x2
 628 0073 17       		.uleb128 0x17
 629 0074 00       		.byte	0
 630 0075 00       		.byte	0
 631 0076 0A       		.uleb128 0xa
 632 0077 05       		.uleb128 0x5
 633 0078 00       		.byte	0
 634 0079 03       		.uleb128 0x3
 635 007a 08       		.uleb128 0x8
 636 007b 3A       		.uleb128 0x3a
 637 007c 0B       		.uleb128 0xb
 638 007d 3B       		.uleb128 0x3b
 639 007e 0B       		.uleb128 0xb
 640 007f 49       		.uleb128 0x49
 641 0080 13       		.uleb128 0x13
 642 0081 02       		.uleb128 0x2
 643 0082 17       		.uleb128 0x17
 644 0083 00       		.byte	0
 645 0084 00       		.byte	0
 646 0085 0B       		.uleb128 0xb
 647 0086 34       		.uleb128 0x34
 648 0087 00       		.byte	0
 649 0088 03       		.uleb128 0x3
 650 0089 0E       		.uleb128 0xe
 651 008a 3A       		.uleb128 0x3a
 652 008b 0B       		.uleb128 0xb
 653 008c 3B       		.uleb128 0x3b
 654 008d 0B       		.uleb128 0xb
 655 008e 49       		.uleb128 0x49
 656 008f 13       		.uleb128 0x13
 657 0090 02       		.uleb128 0x2
 658 0091 17       		.uleb128 0x17
 659 0092 00       		.byte	0
 660 0093 00       		.byte	0
 661 0094 0C       		.uleb128 0xc
 662 0095 898201   		.uleb128 0x4109
 663 0098 01       		.byte	0x1
 664 0099 11       		.uleb128 0x11
 665 009a 01       		.uleb128 0x1
 666 009b 31       		.uleb128 0x31
 667 009c 13       		.uleb128 0x13
 668 009d 00       		.byte	0
 669 009e 00       		.byte	0
 670 009f 0D       		.uleb128 0xd
 671 00a0 8A8201   		.uleb128 0x410a
 672 00a3 00       		.byte	0
 673 00a4 02       		.uleb128 0x2
 674 00a5 18       		.uleb128 0x18
 675 00a6 9142     		.uleb128 0x2111
 676 00a8 18       		.uleb128 0x18
 677 00a9 00       		.byte	0
 678 00aa 00       		.byte	0
 679 00ab 0E       		.uleb128 0xe
 680 00ac 2E       		.uleb128 0x2e
ARM GAS  /tmp/ccdlrrt9.s 			page 13


 681 00ad 01       		.byte	0x1
 682 00ae 3F       		.uleb128 0x3f
 683 00af 19       		.uleb128 0x19
 684 00b0 03       		.uleb128 0x3
 685 00b1 0E       		.uleb128 0xe
 686 00b2 3A       		.uleb128 0x3a
 687 00b3 0B       		.uleb128 0xb
 688 00b4 3B       		.uleb128 0x3b
 689 00b5 0B       		.uleb128 0xb
 690 00b6 27       		.uleb128 0x27
 691 00b7 19       		.uleb128 0x19
 692 00b8 49       		.uleb128 0x49
 693 00b9 13       		.uleb128 0x13
 694 00ba 11       		.uleb128 0x11
 695 00bb 01       		.uleb128 0x1
 696 00bc 12       		.uleb128 0x12
 697 00bd 06       		.uleb128 0x6
 698 00be 40       		.uleb128 0x40
 699 00bf 18       		.uleb128 0x18
 700 00c0 9742     		.uleb128 0x2117
 701 00c2 19       		.uleb128 0x19
 702 00c3 01       		.uleb128 0x1
 703 00c4 13       		.uleb128 0x13
 704 00c5 00       		.byte	0
 705 00c6 00       		.byte	0
 706 00c7 0F       		.uleb128 0xf
 707 00c8 0B       		.uleb128 0xb
 708 00c9 01       		.byte	0x1
 709 00ca 55       		.uleb128 0x55
 710 00cb 17       		.uleb128 0x17
 711 00cc 00       		.byte	0
 712 00cd 00       		.byte	0
 713 00ce 10       		.uleb128 0x10
 714 00cf 34       		.uleb128 0x34
 715 00d0 00       		.byte	0
 716 00d1 03       		.uleb128 0x3
 717 00d2 08       		.uleb128 0x8
 718 00d3 3A       		.uleb128 0x3a
 719 00d4 0B       		.uleb128 0xb
 720 00d5 3B       		.uleb128 0x3b
 721 00d6 0B       		.uleb128 0xb
 722 00d7 49       		.uleb128 0x49
 723 00d8 13       		.uleb128 0x13
 724 00d9 02       		.uleb128 0x2
 725 00da 17       		.uleb128 0x17
 726 00db 00       		.byte	0
 727 00dc 00       		.byte	0
 728 00dd 11       		.uleb128 0x11
 729 00de 898201   		.uleb128 0x4109
 730 00e1 01       		.byte	0x1
 731 00e2 11       		.uleb128 0x11
 732 00e3 01       		.uleb128 0x1
 733 00e4 31       		.uleb128 0x31
 734 00e5 13       		.uleb128 0x13
 735 00e6 01       		.uleb128 0x1
 736 00e7 13       		.uleb128 0x13
 737 00e8 00       		.byte	0
ARM GAS  /tmp/ccdlrrt9.s 			page 14


 738 00e9 00       		.byte	0
 739 00ea 12       		.uleb128 0x12
 740 00eb 34       		.uleb128 0x34
 741 00ec 00       		.byte	0
 742 00ed 03       		.uleb128 0x3
 743 00ee 0E       		.uleb128 0xe
 744 00ef 3A       		.uleb128 0x3a
 745 00f0 0B       		.uleb128 0xb
 746 00f1 3B       		.uleb128 0x3b
 747 00f2 05       		.uleb128 0x5
 748 00f3 49       		.uleb128 0x49
 749 00f4 13       		.uleb128 0x13
 750 00f5 3F       		.uleb128 0x3f
 751 00f6 19       		.uleb128 0x19
 752 00f7 3C       		.uleb128 0x3c
 753 00f8 19       		.uleb128 0x19
 754 00f9 00       		.byte	0
 755 00fa 00       		.byte	0
 756 00fb 13       		.uleb128 0x13
 757 00fc 2E       		.uleb128 0x2e
 758 00fd 01       		.byte	0x1
 759 00fe 3F       		.uleb128 0x3f
 760 00ff 19       		.uleb128 0x19
 761 0100 03       		.uleb128 0x3
 762 0101 0E       		.uleb128 0xe
 763 0102 3A       		.uleb128 0x3a
 764 0103 0B       		.uleb128 0xb
 765 0104 3B       		.uleb128 0x3b
 766 0105 0B       		.uleb128 0xb
 767 0106 27       		.uleb128 0x27
 768 0107 19       		.uleb128 0x19
 769 0108 3C       		.uleb128 0x3c
 770 0109 19       		.uleb128 0x19
 771 010a 00       		.byte	0
 772 010b 00       		.byte	0
 773 010c 14       		.uleb128 0x14
 774 010d 05       		.uleb128 0x5
 775 010e 00       		.byte	0
 776 010f 49       		.uleb128 0x49
 777 0110 13       		.uleb128 0x13
 778 0111 00       		.byte	0
 779 0112 00       		.byte	0
 780 0113 00       		.byte	0
 781              		.section	.debug_loc,"",%progbits
 782              	.Ldebug_loc0:
 783              	.LLST0:
 784 0000 00000000 		.4byte	.LVL0
 785 0004 12000000 		.4byte	.LVL1
 786 0008 0100     		.2byte	0x1
 787 000a 50       		.byte	0x50
 788 000b 12000000 		.4byte	.LVL1
 789 000f 38000000 		.4byte	.LVL6
 790 0013 0100     		.2byte	0x1
 791 0015 56       		.byte	0x56
 792 0016 38000000 		.4byte	.LVL6
 793 001a 3A000000 		.4byte	.LVL7
 794 001e 0100     		.2byte	0x1
ARM GAS  /tmp/ccdlrrt9.s 			page 15


 795 0020 50       		.byte	0x50
 796 0021 3A000000 		.4byte	.LVL7
 797 0025 56000000 		.4byte	.LVL12
 798 0029 0100     		.2byte	0x1
 799 002b 56       		.byte	0x56
 800 002c 56000000 		.4byte	.LVL12
 801 0030 5C000000 		.4byte	.LFE118
 802 0034 0400     		.2byte	0x4
 803 0036 F3       		.byte	0xf3
 804 0037 01       		.uleb128 0x1
 805 0038 50       		.byte	0x50
 806 0039 9F       		.byte	0x9f
 807 003a 00000000 		.4byte	0
 808 003e 00000000 		.4byte	0
 809              	.LLST1:
 810 0042 00000000 		.4byte	.LVL0
 811 0046 12000000 		.4byte	.LVL1
 812 004a 0100     		.2byte	0x1
 813 004c 51       		.byte	0x51
 814 004d 12000000 		.4byte	.LVL1
 815 0051 1E000000 		.4byte	.LVL2
 816 0055 0100     		.2byte	0x1
 817 0057 55       		.byte	0x55
 818 0058 1E000000 		.4byte	.LVL2
 819 005c 38000000 		.4byte	.LVL6
 820 0060 0400     		.2byte	0x4
 821 0062 F3       		.byte	0xf3
 822 0063 01       		.uleb128 0x1
 823 0064 51       		.byte	0x51
 824 0065 9F       		.byte	0x9f
 825 0066 38000000 		.4byte	.LVL6
 826 006a 3D000000 		.4byte	.LVL8-1
 827 006e 0100     		.2byte	0x1
 828 0070 51       		.byte	0x51
 829 0071 3D000000 		.4byte	.LVL8-1
 830 0075 40000000 		.4byte	.LVL9
 831 0079 0100     		.2byte	0x1
 832 007b 55       		.byte	0x55
 833 007c 40000000 		.4byte	.LVL9
 834 0080 5C000000 		.4byte	.LFE118
 835 0084 0400     		.2byte	0x4
 836 0086 F3       		.byte	0xf3
 837 0087 01       		.uleb128 0x1
 838 0088 51       		.byte	0x51
 839 0089 9F       		.byte	0x9f
 840 008a 00000000 		.4byte	0
 841 008e 00000000 		.4byte	0
 842              	.LLST2:
 843 0092 00000000 		.4byte	.LVL0
 844 0096 12000000 		.4byte	.LVL1
 845 009a 0100     		.2byte	0x1
 846 009c 52       		.byte	0x52
 847 009d 12000000 		.4byte	.LVL1
 848 00a1 2A000000 		.4byte	.LVL4
 849 00a5 0100     		.2byte	0x1
 850 00a7 54       		.byte	0x54
 851 00a8 2A000000 		.4byte	.LVL4
ARM GAS  /tmp/ccdlrrt9.s 			page 16


 852 00ac 38000000 		.4byte	.LVL6
 853 00b0 0400     		.2byte	0x4
 854 00b2 F3       		.byte	0xf3
 855 00b3 01       		.uleb128 0x1
 856 00b4 52       		.byte	0x52
 857 00b5 9F       		.byte	0x9f
 858 00b6 38000000 		.4byte	.LVL6
 859 00ba 3D000000 		.4byte	.LVL8-1
 860 00be 0100     		.2byte	0x1
 861 00c0 52       		.byte	0x52
 862 00c1 3D000000 		.4byte	.LVL8-1
 863 00c5 40000000 		.4byte	.LVL9
 864 00c9 0100     		.2byte	0x1
 865 00cb 54       		.byte	0x54
 866 00cc 40000000 		.4byte	.LVL9
 867 00d0 5C000000 		.4byte	.LFE118
 868 00d4 0400     		.2byte	0x4
 869 00d6 F3       		.byte	0xf3
 870 00d7 01       		.uleb128 0x1
 871 00d8 52       		.byte	0x52
 872 00d9 9F       		.byte	0x9f
 873 00da 00000000 		.4byte	0
 874 00de 00000000 		.4byte	0
 875              	.LLST3:
 876 00e2 20000000 		.4byte	.LVL3
 877 00e6 30000000 		.4byte	.LVL5
 878 00ea 0100     		.2byte	0x1
 879 00ec 53       		.byte	0x53
 880 00ed 30000000 		.4byte	.LVL5
 881 00f1 38000000 		.4byte	.LVL6
 882 00f5 0600     		.2byte	0x6
 883 00f7 F3       		.byte	0xf3
 884 00f8 01       		.uleb128 0x1
 885 00f9 52       		.byte	0x52
 886 00fa 35       		.byte	0x35
 887 00fb 25       		.byte	0x25
 888 00fc 9F       		.byte	0x9f
 889 00fd 40000000 		.4byte	.LVL9
 890 0101 48000000 		.4byte	.LVL10
 891 0105 0100     		.2byte	0x1
 892 0107 53       		.byte	0x53
 893 0108 48000000 		.4byte	.LVL10
 894 010c 5C000000 		.4byte	.LFE118
 895 0110 0600     		.2byte	0x6
 896 0112 F3       		.byte	0xf3
 897 0113 01       		.uleb128 0x1
 898 0114 52       		.byte	0x52
 899 0115 35       		.byte	0x35
 900 0116 25       		.byte	0x25
 901 0117 9F       		.byte	0x9f
 902 0118 00000000 		.4byte	0
 903 011c 00000000 		.4byte	0
 904              	.LLST4:
 905 0120 2A000000 		.4byte	.LVL4
 906 0124 38000000 		.4byte	.LVL6
 907 0128 0100     		.2byte	0x1
 908 012a 55       		.byte	0x55
ARM GAS  /tmp/ccdlrrt9.s 			page 17


 909 012b 40000000 		.4byte	.LVL9
 910 012f 56000000 		.4byte	.LVL12
 911 0133 0100     		.2byte	0x1
 912 0135 55       		.byte	0x55
 913 0136 56000000 		.4byte	.LVL12
 914 013a 5C000000 		.4byte	.LFE118
 915 013e 0600     		.2byte	0x6
 916 0140 F3       		.byte	0xf3
 917 0141 01       		.uleb128 0x1
 918 0142 51       		.byte	0x51
 919 0143 35       		.byte	0x35
 920 0144 25       		.byte	0x25
 921 0145 9F       		.byte	0x9f
 922 0146 00000000 		.4byte	0
 923 014a 00000000 		.4byte	0
 924              	.LLST5:
 925 014e 2A000000 		.4byte	.LVL4
 926 0152 38000000 		.4byte	.LVL6
 927 0156 0100     		.2byte	0x1
 928 0158 54       		.byte	0x54
 929 0159 40000000 		.4byte	.LVL9
 930 015d 56000000 		.4byte	.LVL12
 931 0161 0100     		.2byte	0x1
 932 0163 54       		.byte	0x54
 933 0164 56000000 		.4byte	.LVL12
 934 0168 5C000000 		.4byte	.LFE118
 935 016c 0600     		.2byte	0x6
 936 016e F3       		.byte	0xf3
 937 016f 01       		.uleb128 0x1
 938 0170 52       		.byte	0x52
 939 0171 4F       		.byte	0x4f
 940 0172 1A       		.byte	0x1a
 941 0173 9F       		.byte	0x9f
 942 0174 00000000 		.4byte	0
 943 0178 00000000 		.4byte	0
 944              	.LLST6:
 945 017c 2A000000 		.4byte	.LVL4
 946 0180 38000000 		.4byte	.LVL6
 947 0184 0100     		.2byte	0x1
 948 0186 52       		.byte	0x52
 949 0187 40000000 		.4byte	.LVL9
 950 018b 4E000000 		.4byte	.LVL11
 951 018f 0100     		.2byte	0x1
 952 0191 52       		.byte	0x52
 953 0192 4E000000 		.4byte	.LVL11
 954 0196 5C000000 		.4byte	.LFE118
 955 019a 0C00     		.2byte	0xc
 956 019c 31       		.byte	0x31
 957 019d F3       		.byte	0xf3
 958 019e 01       		.uleb128 0x1
 959 019f 51       		.byte	0x51
 960 01a0 4F       		.byte	0x4f
 961 01a1 1A       		.byte	0x1a
 962 01a2 23       		.byte	0x23
 963 01a3 01       		.uleb128 0x1
 964 01a4 24       		.byte	0x24
 965 01a5 31       		.byte	0x31
ARM GAS  /tmp/ccdlrrt9.s 			page 18


 966 01a6 1C       		.byte	0x1c
 967 01a7 9F       		.byte	0x9f
 968 01a8 00000000 		.4byte	0
 969 01ac 00000000 		.4byte	0
 970              	.LLST7:
 971 01b0 00000000 		.4byte	.LVL13
 972 01b4 15000000 		.4byte	.LVL14-1
 973 01b8 0100     		.2byte	0x1
 974 01ba 50       		.byte	0x50
 975 01bb 15000000 		.4byte	.LVL14-1
 976 01bf 1C000000 		.4byte	.LVL15
 977 01c3 0100     		.2byte	0x1
 978 01c5 55       		.byte	0x55
 979 01c6 1C000000 		.4byte	.LVL15
 980 01ca 1E000000 		.4byte	.LVL16
 981 01ce 0100     		.2byte	0x1
 982 01d0 50       		.byte	0x50
 983 01d1 1E000000 		.4byte	.LVL16
 984 01d5 20000000 		.4byte	.LVL17
 985 01d9 0100     		.2byte	0x1
 986 01db 55       		.byte	0x55
 987 01dc 20000000 		.4byte	.LVL17
 988 01e0 27000000 		.4byte	.LVL18-1
 989 01e4 0100     		.2byte	0x1
 990 01e6 50       		.byte	0x50
 991 01e7 27000000 		.4byte	.LVL18-1
 992 01eb 4E000000 		.4byte	.LFE119
 993 01ef 0100     		.2byte	0x1
 994 01f1 55       		.byte	0x55
 995 01f2 00000000 		.4byte	0
 996 01f6 00000000 		.4byte	0
 997              	.LLST8:
 998 01fa 2C000000 		.4byte	.LVL19
 999 01fe 30000000 		.4byte	.LVL20
 1000 0202 0100     		.2byte	0x1
 1001 0204 50       		.byte	0x50
 1002 0205 30000000 		.4byte	.LVL20
 1003 0209 44000000 		.4byte	.LVL26
 1004 020d 0100     		.2byte	0x1
 1005 020f 54       		.byte	0x54
 1006 0210 44000000 		.4byte	.LVL26
 1007 0214 46000000 		.4byte	.LVL27
 1008 0218 0300     		.2byte	0x3
 1009 021a 74       		.byte	0x74
 1010 021b 7F       		.sleb128 -1
 1011 021c 9F       		.byte	0x9f
 1012 021d 00000000 		.4byte	0
 1013 0221 00000000 		.4byte	0
 1014              	.LLST9:
 1015 0225 38000000 		.4byte	.LVL22
 1016 0229 3C000000 		.4byte	.LVL23
 1017 022d 0100     		.2byte	0x1
 1018 022f 50       		.byte	0x50
 1019 0230 3C000000 		.4byte	.LVL23
 1020 0234 42000000 		.4byte	.LVL25
 1021 0238 0100     		.2byte	0x1
 1022 023a 56       		.byte	0x56
ARM GAS  /tmp/ccdlrrt9.s 			page 19


 1023 023b 42000000 		.4byte	.LVL25
 1024 023f 4E000000 		.4byte	.LFE119
 1025 0243 0300     		.2byte	0x3
 1026 0245 76       		.byte	0x76
 1027 0246 7E       		.sleb128 -2
 1028 0247 9F       		.byte	0x9f
 1029 0248 00000000 		.4byte	0
 1030 024c 00000000 		.4byte	0
 1031              	.LLST10:
 1032 0250 40000000 		.4byte	.LVL24
 1033 0254 48000000 		.4byte	.LVL28
 1034 0258 0100     		.2byte	0x1
 1035 025a 50       		.byte	0x50
 1036 025b 48000000 		.4byte	.LVL28
 1037 025f 4C000000 		.4byte	.LVL29
 1038 0263 0300     		.2byte	0x3
 1039 0265 70       		.byte	0x70
 1040 0266 09       		.sleb128 9
 1041 0267 9F       		.byte	0x9f
 1042 0268 00000000 		.4byte	0
 1043 026c 00000000 		.4byte	0
 1044              		.section	.debug_aranges,"",%progbits
 1045 0000 24000000 		.4byte	0x24
 1046 0004 0200     		.2byte	0x2
 1047 0006 00000000 		.4byte	.Ldebug_info0
 1048 000a 04       		.byte	0x4
 1049 000b 00       		.byte	0
 1050 000c 0000     		.2byte	0
 1051 000e 0000     		.2byte	0
 1052 0010 00000000 		.4byte	.LFB118
 1053 0014 5C000000 		.4byte	.LFE118-.LFB118
 1054 0018 00000000 		.4byte	.LFB119
 1055 001c 4E000000 		.4byte	.LFE119-.LFB119
 1056 0020 00000000 		.4byte	0
 1057 0024 00000000 		.4byte	0
 1058              		.section	.debug_ranges,"",%progbits
 1059              	.Ldebug_ranges0:
 1060 0000 0E000000 		.4byte	.LBB2
 1061 0004 1E000000 		.4byte	.LBE2
 1062 0008 20000000 		.4byte	.LBB3
 1063 000c 4E000000 		.4byte	.LBE3
 1064 0010 00000000 		.4byte	0
 1065 0014 00000000 		.4byte	0
 1066 0018 00000000 		.4byte	.LFB118
 1067 001c 5C000000 		.4byte	.LFE118
 1068 0020 00000000 		.4byte	.LFB119
 1069 0024 4E000000 		.4byte	.LFE119
 1070 0028 00000000 		.4byte	0
 1071 002c 00000000 		.4byte	0
 1072              		.section	.debug_line,"",%progbits
 1073              	.Ldebug_line0:
 1074 0000 50010000 		.section	.debug_str,"MS",%progbits,1
 1074      0200F400 
 1074      00000201 
 1074      FB0E0D00 
 1074      01010101 
 1075              	.LASF22:
ARM GAS  /tmp/ccdlrrt9.s 			page 20


 1076 0000 474E5520 		.ascii	"GNU C 4.9.2 20150128 (prerelease) -mcpu=cortex-m4 -"
 1076      4320342E 
 1076      392E3220 
 1076      32303135 
 1076      30313238 
 1077 0033 6D6E6F2D 		.ascii	"mno-thumb-interwork -mthumb -ggdb -O2 -fomit-frame-"
 1077      7468756D 
 1077      622D696E 
 1077      74657277 
 1077      6F726B20 
 1078 0066 706F696E 		.ascii	"pointer -falign-functions=16 -ffunction-sections -f"
 1078      74657220 
 1078      2D66616C 
 1078      69676E2D 
 1078      66756E63 
 1079 0099 64617461 		.ascii	"data-sections -fno-common\000"
 1079      2D736563 
 1079      74696F6E 
 1079      73202D66 
 1079      6E6F2D63 
 1080              	.LASF6:
 1081 00b3 5F5F696E 		.ascii	"__int32_t\000"
 1081      7433325F 
 1081      7400
 1082              	.LASF17:
 1083 00bd 73746172 		.ascii	"start\000"
 1083      7400
 1084              	.LASF16:
 1085 00c3 64617461 		.ascii	"data\000"
 1085      00
 1086              	.LASF19:
 1087 00c8 656E6469 		.ascii	"endidx\000"
 1087      647800
 1088              	.LASF20:
 1089 00cf 73746172 		.ascii	"startoff\000"
 1089      746F6666 
 1089      00
 1090              	.LASF18:
 1091 00d8 73746172 		.ascii	"startidx\000"
 1091      74696478 
 1091      00
 1092              	.LASF24:
 1093 00e1 2F686F6D 		.ascii	"/home/julien/Documents/telecom/ROSE/JulienRomero/ch"
 1093      652F6A75 
 1093      6C69656E 
 1093      2F446F63 
 1093      756D656E 
 1094 0114 616C6C65 		.ascii	"allenge2015/ChibiOS_2.6.7/testhal/STM32F4xx/SDC\000"
 1094      6E676532 
 1094      3031352F 
 1094      43686962 
 1094      694F535F 
 1095              	.LASF25:
 1096 0144 6D6D6373 		.ascii	"mmcsd_get_slice\000"
 1096      645F6765 
 1096      745F736C 
 1096      69636500 
ARM GAS  /tmp/ccdlrrt9.s 			page 21


 1097              	.LASF2:
 1098 0154 756E7369 		.ascii	"unsigned char\000"
 1098      676E6564 
 1098      20636861 
 1098      7200
 1099              	.LASF8:
 1100 0162 6C6F6E67 		.ascii	"long unsigned int\000"
 1100      20756E73 
 1100      69676E65 
 1100      6420696E 
 1100      7400
 1101              	.LASF4:
 1102 0174 73686F72 		.ascii	"short unsigned int\000"
 1102      7420756E 
 1102      7369676E 
 1102      65642069 
 1102      6E7400
 1103              	.LASF27:
 1104 0187 49544D5F 		.ascii	"ITM_RxBuffer\000"
 1104      52784275 
 1104      66666572 
 1104      00
 1105              	.LASF7:
 1106 0194 5F5F7569 		.ascii	"__uint32_t\000"
 1106      6E743332 
 1106      5F7400
 1107              	.LASF21:
 1108 019f 656E646D 		.ascii	"endmask\000"
 1108      61736B00 
 1109              	.LASF0:
 1110 01a7 756E7369 		.ascii	"unsigned int\000"
 1110      676E6564 
 1110      20696E74 
 1110      00
 1111              	.LASF15:
 1112 01b4 63686172 		.ascii	"char\000"
 1112      00
 1113              	.LASF11:
 1114 01b9 696E7433 		.ascii	"int32_t\000"
 1114      325F7400 
 1115              	.LASF14:
 1116 01c1 73697A65 		.ascii	"sizetype\000"
 1116      74797065 
 1116      00
 1117              	.LASF9:
 1118 01ca 6C6F6E67 		.ascii	"long long int\000"
 1118      206C6F6E 
 1118      6720696E 
 1118      7400
 1119              	.LASF28:
 1120 01d8 63684462 		.ascii	"chDbgPanic\000"
 1120      6750616E 
 1120      696300
 1121              	.LASF3:
 1122 01e3 73686F72 		.ascii	"short int\000"
 1122      7420696E 
 1122      7400
ARM GAS  /tmp/ccdlrrt9.s 			page 22


 1123              	.LASF12:
 1124 01ed 75696E74 		.ascii	"uint32_t\000"
 1124      33325F74 
 1124      00
 1125              	.LASF5:
 1126 01f6 6C6F6E67 		.ascii	"long int\000"
 1126      20696E74 
 1126      00
 1127              	.LASF26:
 1128 01ff 6D6D6373 		.ascii	"mmcsdGetCapacity\000"
 1128      64476574 
 1128      43617061 
 1128      63697479 
 1128      00
 1129              	.LASF1:
 1130 0210 7369676E 		.ascii	"signed char\000"
 1130      65642063 
 1130      68617200 
 1131              	.LASF13:
 1132 021c 5F426F6F 		.ascii	"_Bool\000"
 1132      6C00
 1133              	.LASF23:
 1134 0222 2E2E2F2E 		.ascii	"../../../os/hal/src/mmcsd.c\000"
 1134      2E2F2E2E 
 1134      2F6F732F 
 1134      68616C2F 
 1134      7372632F 
 1135              	.LASF10:
 1136 023e 6C6F6E67 		.ascii	"long long unsigned int\000"
 1136      206C6F6E 
 1136      6720756E 
 1136      7369676E 
 1136      65642069 
 1137              		.ident	"GCC: (Arch Repository) 4.9.2 20150128 (prerelease)"
ARM GAS  /tmp/ccdlrrt9.s 			page 23


DEFINED SYMBOLS
                            *ABS*:0000000000000000 mmcsd.c
     /tmp/ccdlrrt9.s:19     .text.mmcsd_get_slice:0000000000000000 $t
     /tmp/ccdlrrt9.s:24     .text.mmcsd_get_slice:0000000000000000 mmcsd_get_slice
     /tmp/ccdlrrt9.s:110    .text.mmcsd_get_slice:0000000000000058 $d
     /tmp/ccdlrrt9.s:115    .text.mmcsdGetCapacity:0000000000000000 $t
     /tmp/ccdlrrt9.s:121    .text.mmcsdGetCapacity:0000000000000000 mmcsdGetCapacity
     /tmp/ccdlrrt9.s:208    .rodata.str1.4:0000000000000000 $d
                     .debug_frame:0000000000000010 $d
     /tmp/ccdlrrt9.s:114    .text.mmcsd_get_slice:000000000000005c $t

UNDEFINED SYMBOLS
chDbgPanic
