ARM GAS  /tmp/ccdlrrt9.s 			page 1


   1              		.syntax unified
   2              		.cpu cortex-m4
   3              		.fpu softvfp
   4              		.eabi_attribute 20, 1
   5              		.eabi_attribute 21, 1
   6              		.eabi_attribute 23, 3
   7              		.eabi_attribute 24, 1
   8              		.eabi_attribute 25, 1
   9              		.eabi_attribute 26, 1
  10              		.eabi_attribute 30, 2
  11              		.eabi_attribute 34, 1
  12              		.eabi_attribute 18, 4
  13              		.thumb
  14              		.file	"mmcsd.c"
  15              		.text
  16              	.Ltext0:
  17              		.cfi_sections	.debug_frame
  18              		.section	.text.mmcsd_get_slice,"ax",%progbits
  19              		.align	2
  20              		.p2align 4,,15
  21              		.thumb
  22              		.thumb_func
  23              		.type	mmcsd_get_slice, %function
  24              	mmcsd_get_slice:
  25              	.LFB118:
  26              		.file 1 "../../../os/hal/src/mmcsd.c"
  27              		.loc 1 69 0
  28              		.cfi_startproc
  29              		@ args = 0, pretend = 0, frame = 0
  30              		@ frame_needed = 0, uses_anonymous_args = 0
  31              	.LVL0:
  32              		.loc 1 73 0
  33 0000 9142     		cmp	r1, r2
  34              		.loc 1 69 0
  35 0002 70B5     		push	{r4, r5, r6, lr}
  36              		.cfi_def_cfa_offset 16
  37              		.cfi_offset 4, -16
  38              		.cfi_offset 5, -12
  39              		.cfi_offset 6, -8
  40              		.cfi_offset 14, -4
  41              		.loc 1 69 0
  42 0004 0D46     		mov	r5, r1
  43 0006 1446     		mov	r4, r2
  44 0008 0646     		mov	r6, r0
  45              		.loc 1 73 0
  46 000a 15D3     		bcc	.L2
  47              		.loc 1 73 0 is_stmt 0 discriminator 2
  48 000c 8B1A     		subs	r3, r1, r2
  49 000e 1F2B     		cmp	r3, #31
  50 0010 12D8     		bhi	.L2
  51              	.LVL1:
  52              	.L3:
  53              		.loc 1 78 0 is_stmt 1
  54 0012 05F01F03 		and	r3, r5, #31
  55 0016 0133     		adds	r3, r3, #1
  56 0018 0122     		movs	r2, #1
  57 001a 9A40     		lsls	r2, r2, r3
ARM GAS  /tmp/ccdlrrt9.s 			page 2


  58              		.loc 1 77 0
  59 001c 6D09     		lsrs	r5, r5, #5
  60              	.LVL2:
  61              		.loc 1 75 0
  62 001e 6309     		lsrs	r3, r4, #5
  63              	.LVL3:
  64              		.loc 1 81 0
  65 0020 AB42     		cmp	r3, r5
  66              		.loc 1 78 0
  67 0022 02F1FF32 		add	r2, r2, #-1
  68              		.loc 1 76 0
  69 0026 04F01F04 		and	r4, r4, #31
  70              	.LVL4:
  71              		.loc 1 81 0
  72 002a 09D3     		bcc	.L8
  73              		.loc 1 84 0
  74 002c 56F82330 		ldr	r3, [r6, r3, lsl #2]
  75              	.LVL5:
  76 0030 02EA0300 		and	r0, r2, r3
  77 0034 E040     		lsrs	r0, r0, r4
  78              		.loc 1 85 0
  79 0036 70BD     		pop	{r4, r5, r6, pc}
  80              	.LVL6:
  81              	.L2:
  82              		.loc 1 73 0 discriminator 3
  83 0038 0748     		ldr	r0, .L9
  84              	.LVL7:
  85 003a FFF7FEFF 		bl	chDbgPanic
  86              	.LVL8:
  87 003e E8E7     		b	.L3
  88              	.LVL9:
  89              	.L8:
  90              		.loc 1 83 0
  91 0040 56F82500 		ldr	r0, [r6, r5, lsl #2]
  92              		.loc 1 82 0
  93 0044 56F82330 		ldr	r3, [r6, r3, lsl #2]
  94              	.LVL10:
  95              		.loc 1 83 0
  96 0048 1040     		ands	r0, r0, r2
  97 004a C4F12002 		rsb	r2, r4, #32
  98              	.LVL11:
  99              		.loc 1 82 0
 100 004e E340     		lsrs	r3, r3, r4
 101              		.loc 1 83 0
 102 0050 9040     		lsls	r0, r0, r2
 103              		.loc 1 82 0
 104 0052 1843     		orrs	r0, r0, r3
 105 0054 70BD     		pop	{r4, r5, r6, pc}
 106              	.LVL12:
 107              	.L10:
 108 0056 00BF     		.align	2
 109              	.L9:
 110 0058 00000000 		.word	.LC0
 111              		.cfi_endproc
 112              	.LFE118:
 113              		.size	mmcsd_get_slice, .-mmcsd_get_slice
 114 005c AFF30080 		.section	.text.mmcsdGetCapacity,"ax",%progbits
ARM GAS  /tmp/ccdlrrt9.s 			page 3


 115              		.align	2
 116              		.p2align 4,,15
 117              		.global	mmcsdGetCapacity
 118              		.thumb
 119              		.thumb_func
 120              		.type	mmcsdGetCapacity, %function
 121              	mmcsdGetCapacity:
 122              	.LFB119:
 123              		.loc 1 100 0
 124              		.cfi_startproc
 125              		@ args = 0, pretend = 0, frame = 0
 126              		@ frame_needed = 0, uses_anonymous_args = 0
 127              	.LVL13:
 128              		.loc 1 102 0
 129 0000 C368     		ldr	r3, [r0, #12]
 130 0002 9B0F     		lsrs	r3, r3, #30
 131              		.loc 1 100 0
 132 0004 70B5     		push	{r4, r5, r6, lr}
 133              		.cfi_def_cfa_offset 16
 134              		.cfi_offset 4, -16
 135              		.cfi_offset 5, -12
 136              		.cfi_offset 6, -8
 137              		.cfi_offset 14, -4
 138              		.loc 1 100 0
 139 0006 0546     		mov	r5, r0
 140              		.loc 1 102 0
 141 0008 0AD0     		beq	.L13
 142 000a 012B     		cmp	r3, #1
 143 000c 06D1     		bne	.L19
 144              	.LBB2:
 145              		.loc 1 112 0
 146 000e 4521     		movs	r1, #69
 147 0010 3022     		movs	r2, #48
 148 0012 FFF7FEFF 		bl	mmcsd_get_slice
 149              	.LVL14:
 150 0016 0130     		adds	r0, r0, #1
 151 0018 8002     		lsls	r0, r0, #10
 152 001a 70BD     		pop	{r4, r5, r6, pc}
 153              	.LVL15:
 154              	.L19:
 155              		.loc 1 115 0
 156 001c 0020     		movs	r0, #0
 157              	.LVL16:
 158              	.LBE2:
 159              		.loc 1 117 0
 160 001e 70BD     		pop	{r4, r5, r6, pc}
 161              	.LVL17:
 162              	.L13:
 163              	.LBB3:
 164              		.loc 1 106 0
 165 0020 4921     		movs	r1, #73
 166 0022 3E22     		movs	r2, #62
 167 0024 FFF7FEFF 		bl	mmcsd_get_slice
 168              	.LVL18:
 169              		.loc 1 107 0
 170 0028 3121     		movs	r1, #49
 171              		.loc 1 106 0
ARM GAS  /tmp/ccdlrrt9.s 			page 4


 172 002a 0446     		mov	r4, r0
 173              	.LVL19:
 174              		.loc 1 107 0
 175 002c 2F22     		movs	r2, #47
 176 002e 2846     		mov	r0, r5
 177              	.LVL20:
 178 0030 FFF7FEFF 		bl	mmcsd_get_slice
 179              	.LVL21:
 180              		.loc 1 108 0
 181 0034 5321     		movs	r1, #83
 182              		.loc 1 107 0
 183 0036 0646     		mov	r6, r0
 184              	.LVL22:
 185              		.loc 1 108 0
 186 0038 5022     		movs	r2, #80
 187 003a 2846     		mov	r0, r5
 188              	.LVL23:
 189 003c FFF7FEFF 		bl	mmcsd_get_slice
 190              	.LVL24:
 191              		.loc 1 109 0
 192 0040 0236     		adds	r6, r6, #2
 193              	.LVL25:
 194 0042 0134     		adds	r4, r4, #1
 195              	.LVL26:
 196 0044 B440     		lsls	r4, r4, r6
 197              	.LVL27:
 198 0046 0938     		subs	r0, r0, #9
 199              	.LVL28:
 200 0048 04FA00F0 		lsl	r0, r4, r0
 201              	.LVL29:
 202 004c 70BD     		pop	{r4, r5, r6, pc}
 203              	.LBE3:
 204              		.cfi_endproc
 205              	.LFE119:
 206              		.size	mmcsdGetCapacity, .-mmcsdGetCapacity
 207 004e 00BF     		.section	.rodata.str1.4,"aMS",%progbits,1
 208              		.align	2
 209              	.LC0:
 210 0000 226D6D63 		.ascii	"\"mmcsd_get_slice\"()\000"
 210      73645F67 
 210      65745F73 
 210      6C696365 
 210      22282900 
 211              		.text
 212              	.Letext0:
 213              		.file 2 "/usr/arm-none-eabi/include/machine/_default_types.h"
 214              		.file 3 "/usr/arm-none-eabi/include/stdint.h"
 215              		.file 4 "../../../os/ports/common/ARMCMx/CMSIS/include/core_cm4.h"
 216              		.file 5 "../../../os/kernel/include/chdebug.h"