ARM GAS  /tmp/ccpX5ZVl.s 			page 1


   1              		.syntax unified
   2              		.cpu cortex-m4
   3              		.fpu softvfp
   4              		.eabi_attribute 20, 1
   5              		.eabi_attribute 21, 1
   6              		.eabi_attribute 23, 3
   7              		.eabi_attribute 24, 1
   8              		.eabi_attribute 25, 1
   9              		.eabi_attribute 26, 1
  10              		.eabi_attribute 30, 2
  11              		.eabi_attribute 34, 1
  12              		.eabi_attribute 18, 4
  13              		.thumb
  14              		.file	"sdc.c"
  15              		.text
  16              	.Ltext0:
  17              		.cfi_sections	.debug_frame
  18              		.section	.text.sdcGetInfo,"ax",%progbits
  19              		.align	2
  20              		.p2align 4,,15
  21              		.global	sdcGetInfo
  22              		.thumb
  23              		.thumb_func
  24              		.type	sdcGetInfo, %function
  25              	sdcGetInfo:
  26              	.LFB129:
  27              		.file 1 "../../../os/hal/src/sdc.c"
  28              		.loc 1 512 0
  29              		.cfi_startproc
  30              		@ args = 0, pretend = 0, frame = 0
  31              		@ frame_needed = 0, uses_anonymous_args = 0
  32              	.LVL0:
  33 0000 38B5     		push	{r3, r4, r5, lr}
  34              		.cfi_def_cfa_offset 16
  35              		.cfi_offset 3, -16
  36              		.cfi_offset 4, -12
  37              		.cfi_offset 5, -8
  38              		.cfi_offset 14, -4
  39              		.loc 1 512 0
  40 0002 0D46     		mov	r5, r1
  41              		.loc 1 514 0
  42 0004 0446     		mov	r4, r0
  43 0006 60B1     		cbz	r0, .L2
  44              		.loc 1 514 0 is_stmt 0 discriminator 2
  45 0008 59B1     		cbz	r1, .L2
  46              	.LVL1:
  47              	.L3:
  48              		.loc 1 516 0 is_stmt 1
  49 000a 2379     		ldrb	r3, [r4, #4]	@ zero_extendqisi2
  50 000c 052B     		cmp	r3, #5
  51 000e 01D0     		beq	.L11
  52              		.loc 1 517 0
  53 0010 0120     		movs	r0, #1
  54              		.loc 1 523 0
  55 0012 38BD     		pop	{r3, r4, r5, pc}
  56              	.LVL2:
  57              	.L11:
ARM GAS  /tmp/ccpX5ZVl.s 			page 2


  58              		.loc 1 519 0
  59 0014 A36A     		ldr	r3, [r4, #40]
  60 0016 6B60     		str	r3, [r5, #4]
  61              		.loc 1 520 0
  62 0018 4FF40073 		mov	r3, #512
  63 001c 2B60     		str	r3, [r5]
  64              		.loc 1 522 0
  65 001e 0020     		movs	r0, #0
  66 0020 38BD     		pop	{r3, r4, r5, pc}
  67              	.LVL3:
  68              	.L2:
  69              		.loc 1 514 0 discriminator 3
  70 0022 0248     		ldr	r0, .L12
  71              	.LVL4:
  72 0024 FFF7FEFF 		bl	chDbgPanic
  73              	.LVL5:
  74 0028 EFE7     		b	.L3
  75              	.L13:
  76 002a 00BF     		.align	2
  77              	.L12:
  78 002c 00000000 		.word	.LC0
  79              		.cfi_endproc
  80              	.LFE129:
  81              		.size	sdcGetInfo, .-sdcGetInfo
  82              		.section	.text.sdcConnect,"ax",%progbits
  83              		.align	2
  84              		.p2align 4,,15
  85              		.global	sdcConnect
  86              		.thumb
  87              		.thumb_func
  88              		.type	sdcConnect, %function
  89              	sdcConnect:
  90              	.LFB123:
  91              		.loc 1 198 0
  92              		.cfi_startproc
  93              		@ args = 0, pretend = 0, frame = 8
  94              		@ frame_needed = 0, uses_anonymous_args = 0
  95              	.LVL6:
  96 0000 2DE9F041 		push	{r4, r5, r6, r7, r8, lr}
  97              		.cfi_def_cfa_offset 24
  98              		.cfi_offset 4, -24
  99              		.cfi_offset 5, -20
 100              		.cfi_offset 6, -16
 101              		.cfi_offset 7, -12
 102              		.cfi_offset 8, -8
 103              		.cfi_offset 14, -4
 104              		.loc 1 201 0
 105 0004 0446     		mov	r4, r0
 106              		.loc 1 198 0
 107 0006 82B0     		sub	sp, sp, #8
 108              		.cfi_def_cfa_offset 32
 109              		.loc 1 201 0
 110 0008 0028     		cmp	r0, #0
 111 000a 00F0D880 		beq	.L44
 112              	.LVL7:
 113              	.L15:
 114              		.loc 1 202 0
ARM GAS  /tmp/ccpX5ZVl.s 			page 3


 115 000e 2379     		ldrb	r3, [r4, #4]	@ zero_extendqisi2
 116 0010 022B     		cmp	r3, #2
 117 0012 04D0     		beq	.L16
 118              		.loc 1 202 0 is_stmt 0 discriminator 1
 119 0014 052B     		cmp	r3, #5
 120 0016 02D0     		beq	.L16
 121              		.loc 1 202 0 discriminator 2
 122 0018 6B48     		ldr	r0, .L46
 123 001a FFF7FEFF 		bl	chDbgPanic
 124              	.LVL8:
 125              	.L16:
 126              		.loc 1 206 0 is_stmt 1
 127 001e 0323     		movs	r3, #3
 128 0020 2371     		strb	r3, [r4, #4]
 129              		.loc 1 209 0
 130 0022 2046     		mov	r0, r4
 131 0024 FFF7FEFF 		bl	sdc_lld_start_clk
 132              	.LVL9:
 133              		.loc 1 212 0
 134 0028 0021     		movs	r1, #0
 135 002a 0A46     		mov	r2, r1
 136 002c 2046     		mov	r0, r4
 137 002e FFF7FEFF 		bl	sdc_lld_send_cmd_none
 138              	.LVL10:
 139              		.loc 1 215 0
 140 0032 01AB     		add	r3, sp, #4
 141 0034 2046     		mov	r0, r4
 142 0036 0821     		movs	r1, #8
 143 0038 4FF4D572 		mov	r2, #426
 144 003c FFF7FEFF 		bl	sdc_lld_send_cmd_short_crc
 145              	.LVL11:
 146 0040 88B9     		cbnz	r0, .L17
 147              		.loc 1 219 0
 148 0042 019B     		ldr	r3, [sp, #4]
 149              		.loc 1 217 0
 150 0044 0122     		movs	r2, #1
 151              		.loc 1 219 0
 152 0046 C3F30323 		ubfx	r3, r3, #8, #4
 153 004a 9342     		cmp	r3, r2
 154              		.loc 1 217 0
 155 004c 2263     		str	r2, [r4, #48]
 156              		.loc 1 219 0
 157 004e 00F0A680 		beq	.L45
 158              	.L18:
 159              	.LDL1:
 160              		.loc 1 330 0
 161 0052 2046     		mov	r0, r4
 162 0054 FFF7FEFF 		bl	sdc_lld_stop_clk
 163              	.LVL12:
 164              		.loc 1 331 0
 165 0058 0223     		movs	r3, #2
 166 005a 2371     		strb	r3, [r4, #4]
 167              		.loc 1 332 0
 168 005c 0125     		movs	r5, #1
 169              	.L26:
 170              		.loc 1 333 0
 171 005e 2846     		mov	r0, r5
ARM GAS  /tmp/ccpX5ZVl.s 			page 4


 172 0060 02B0     		add	sp, sp, #8
 173              		.cfi_remember_state
 174              		.cfi_def_cfa_offset 24
 175              		@ sp needed
 176 0062 BDE8F081 		pop	{r4, r5, r6, r7, r8, pc}
 177              	.LVL13:
 178              	.L17:
 179              		.cfi_restore_state
 180              		.loc 1 234 0
 181 0066 0021     		movs	r1, #0
 182 0068 2163     		str	r1, [r4, #48]
 183              		.loc 1 237 0
 184 006a 0A46     		mov	r2, r1
 185 006c 2046     		mov	r0, r4
 186 006e FFF7FEFF 		bl	sdc_lld_send_cmd_none
 187              	.LVL14:
 188              	.L19:
 189              	.LBB5:
 190              		.loc 1 253 0
 191 0072 226B     		ldr	r2, [r4, #48]
 192              		.loc 1 256 0
 193 0074 554B     		ldr	r3, .L46+4
 194 0076 5649     		ldr	r1, .L46+8
 195              		.loc 1 253 0
 196 0078 02F00F02 		and	r2, r2, #15
 197              		.loc 1 256 0
 198 007c 012A     		cmp	r2, #1
 199 007e 0CBF     		ite	eq
 200 0080 9846     		moveq	r8, r3
 201 0082 8846     		movne	r8, r1
 202              	.LVL15:
 203 0084 6426     		movs	r6, #100
 204 0086 03E0     		b	.L23
 205              	.LVL16:
 206              	.L21:
 207              		.loc 1 271 0
 208 0088 013E     		subs	r6, r6, #1
 209              	.LVL17:
 210 008a E2D0     		beq	.L18
 211              		.loc 1 273 0
 212 008c FFF7FEFF 		bl	chThdSleep
 213              	.LVL18:
 214              	.L23:
 215              		.loc 1 261 0
 216 0090 3721     		movs	r1, #55
 217 0092 0022     		movs	r2, #0
 218 0094 01AB     		add	r3, sp, #4
 219 0096 2046     		mov	r0, r4
 220 0098 FFF7FEFF 		bl	sdc_lld_send_cmd_short_crc
 221              	.LVL19:
 222              		.loc 1 262 0
 223 009c 4D4D     		ldr	r5, .L46+12
 224              		.loc 1 264 0
 225 009e 2921     		movs	r1, #41
 226 00a0 4246     		mov	r2, r8
 227 00a2 01AB     		add	r3, sp, #4
 228              		.loc 1 261 0
ARM GAS  /tmp/ccpX5ZVl.s 			page 5


 229 00a4 0028     		cmp	r0, #0
 230 00a6 D4D1     		bne	.L18
 231              	.LVL20:
 232              		.loc 1 262 0 discriminator 1
 233 00a8 019F     		ldr	r7, [sp, #4]
 234 00aa 3D40     		ands	r5, r5, r7
 235              		.loc 1 264 0 discriminator 1
 236 00ac 2046     		mov	r0, r4
 237              		.loc 1 261 0 discriminator 1
 238 00ae 002D     		cmp	r5, #0
 239 00b0 CFD1     		bne	.L18
 240              	.LVL21:
 241              		.loc 1 264 0
 242 00b2 FFF7FEFF 		bl	sdc_lld_send_cmd_short
 243              	.LVL22:
 244 00b6 0028     		cmp	r0, #0
 245 00b8 CBD1     		bne	.L18
 246              		.loc 1 266 0
 247 00ba 019B     		ldr	r3, [sp, #4]
 248 00bc 002B     		cmp	r3, #0
 249              		.loc 1 273 0
 250 00be 4FF00A00 		mov	r0, #10
 251              		.loc 1 266 0
 252 00c2 E1DA     		bge	.L21
 253              		.loc 1 267 0
 254 00c4 5B00     		lsls	r3, r3, #1
 255 00c6 03D5     		bpl	.L22
 256              		.loc 1 268 0
 257 00c8 236B     		ldr	r3, [r4, #48]
 258 00ca 43F01003 		orr	r3, r3, #16
 259 00ce 2363     		str	r3, [r4, #48]
 260              	.L22:
 261              	.LBE5:
 262              		.loc 1 278 0
 263 00d0 2046     		mov	r0, r4
 264 00d2 0221     		movs	r1, #2
 265 00d4 0022     		movs	r2, #0
 266 00d6 04F10803 		add	r3, r4, #8
 267 00da FFF7FEFF 		bl	sdc_lld_send_cmd_long_crc
 268              	.LVL23:
 269 00de 0028     		cmp	r0, #0
 270 00e0 B7D1     		bne	.L18
 271              		.loc 1 282 0
 272 00e2 0246     		mov	r2, r0
 273 00e4 0321     		movs	r1, #3
 274 00e6 2046     		mov	r0, r4
 275 00e8 04F13803 		add	r3, r4, #56
 276 00ec FFF7FEFF 		bl	sdc_lld_send_cmd_short_crc
 277              	.LVL24:
 278 00f0 0028     		cmp	r0, #0
 279 00f2 AED1     		bne	.L18
 280              		.loc 1 288 0
 281 00f4 04F11806 		add	r6, r4, #24
 282              	.LVL25:
 283              		.loc 1 287 0
 284 00f8 3346     		mov	r3, r6
 285 00fa 2046     		mov	r0, r4
ARM GAS  /tmp/ccpX5ZVl.s 			page 6


 286 00fc 0921     		movs	r1, #9
 287 00fe A26B     		ldr	r2, [r4, #56]
 288 0100 FFF7FEFF 		bl	sdc_lld_send_cmd_long_crc
 289              	.LVL26:
 290 0104 0028     		cmp	r0, #0
 291 0106 A4D1     		bne	.L18
 292              		.loc 1 292 0
 293 0108 2046     		mov	r0, r4
 294 010a FFF7FEFF 		bl	sdc_lld_set_data_clk
 295              	.LVL27:
 296              		.loc 1 295 0
 297 010e 2046     		mov	r0, r4
 298 0110 0721     		movs	r1, #7
 299 0112 A26B     		ldr	r2, [r4, #56]
 300 0114 01AB     		add	r3, sp, #4
 301 0116 FFF7FEFF 		bl	sdc_lld_send_cmd_short_crc
 302              	.LVL28:
 303 011a 0028     		cmp	r0, #0
 304 011c 99D1     		bne	.L18
 305              		.loc 1 300 0
 306 011e 2046     		mov	r0, r4
 307 0120 1021     		movs	r1, #16
 308 0122 4FF40072 		mov	r2, #512
 309 0126 01AB     		add	r3, sp, #4
 310 0128 FFF7FEFF 		bl	sdc_lld_send_cmd_short_crc
 311              	.LVL29:
 312 012c 0546     		mov	r5, r0
 313 012e 0028     		cmp	r0, #0
 314 0130 8FD1     		bne	.L18
 315              		.loc 1 302 0
 316 0132 019B     		ldr	r3, [sp, #4]
 317 0134 274A     		ldr	r2, .L46+12
 318 0136 1A40     		ands	r2, r2, r3
 319              		.loc 1 301 0
 320 0138 002A     		cmp	r2, #0
 321 013a 8AD1     		bne	.L18
 322              		.loc 1 306 0
 323 013c 226B     		ldr	r2, [r4, #48]
 324 013e 02F00F02 		and	r2, r2, #15
 325 0142 012A     		cmp	r2, #1
 326 0144 21D8     		bhi	.L24
 327              		.loc 1 309 0
 328 0146 2046     		mov	r0, r4
 329 0148 0121     		movs	r1, #1
 330 014a FFF7FEFF 		bl	sdc_lld_set_bus_mode
 331              	.LVL30:
 332              		.loc 1 310 0
 333 014e 2046     		mov	r0, r4
 334 0150 3721     		movs	r1, #55
 335 0152 A26B     		ldr	r2, [r4, #56]
 336 0154 01AB     		add	r3, sp, #4
 337 0156 FFF7FEFF 		bl	sdc_lld_send_cmd_short_crc
 338              	.LVL31:
 339 015a 0028     		cmp	r0, #0
 340 015c 7FF479AF 		bne	.L18
 341              		.loc 1 311 0 discriminator 1
 342 0160 019B     		ldr	r3, [sp, #4]
ARM GAS  /tmp/ccpX5ZVl.s 			page 7


 343 0162 1C4A     		ldr	r2, .L46+12
 344 0164 1A40     		ands	r2, r2, r3
 345              		.loc 1 310 0 discriminator 1
 346 0166 002A     		cmp	r2, #0
 347 0168 7FF473AF 		bne	.L18
 348              		.loc 1 313 0
 349 016c 01AB     		add	r3, sp, #4
 350 016e 2046     		mov	r0, r4
 351 0170 0621     		movs	r1, #6
 352 0172 0222     		movs	r2, #2
 353 0174 FFF7FEFF 		bl	sdc_lld_send_cmd_short_crc
 354              	.LVL32:
 355 0178 0028     		cmp	r0, #0
 356 017a 7FF46AAF 		bne	.L18
 357              		.loc 1 314 0 discriminator 1
 358 017e 019B     		ldr	r3, [sp, #4]
 359 0180 144A     		ldr	r2, .L46+12
 360 0182 1A40     		ands	r2, r2, r3
 361              		.loc 1 313 0 discriminator 1
 362 0184 002A     		cmp	r2, #0
 363 0186 7FF464AF 		bne	.L18
 364              	.L24:
 365              		.loc 1 320 0
 366 018a 3046     		mov	r0, r6
 367 018c FFF7FEFF 		bl	mmcsdGetCapacity
 368              	.LVL33:
 369 0190 A062     		str	r0, [r4, #40]
 370              		.loc 1 321 0
 371 0192 0028     		cmp	r0, #0
 372 0194 3FF45DAF 		beq	.L18
 373              		.loc 1 325 0
 374 0198 0523     		movs	r3, #5
 375 019a 2371     		strb	r3, [r4, #4]
 376              		.loc 1 326 0
 377 019c 5FE7     		b	.L26
 378              	.LVL34:
 379              	.L45:
 380              		.loc 1 221 0
 381 019e 0246     		mov	r2, r0
 382 01a0 3721     		movs	r1, #55
 383 01a2 2046     		mov	r0, r4
 384 01a4 01AB     		add	r3, sp, #4
 385 01a6 FFF7FEFF 		bl	sdc_lld_send_cmd_short_crc
 386              	.LVL35:
 387 01aa 0028     		cmp	r0, #0
 388 01ac 7FF451AF 		bne	.L18
 389              		.loc 1 222 0 discriminator 1
 390 01b0 019A     		ldr	r2, [sp, #4]
 391 01b2 084B     		ldr	r3, .L46+12
 392 01b4 1340     		ands	r3, r3, r2
 393              		.loc 1 221 0 discriminator 1
 394 01b6 002B     		cmp	r3, #0
 395 01b8 7FF44BAF 		bne	.L18
 396 01bc 59E7     		b	.L19
 397              	.LVL36:
 398              	.L44:
 399              		.loc 1 201 0 discriminator 1
ARM GAS  /tmp/ccpX5ZVl.s 			page 8


 400 01be 0648     		ldr	r0, .L46+16
 401              	.LVL37:
 402 01c0 FFF7FEFF 		bl	chDbgPanic
 403              	.LVL38:
 404 01c4 23E7     		b	.L15
 405              	.L47:
 406 01c6 00BF     		.align	2
 407              	.L46:
 408 01c8 20000000 		.word	.LC2
 409 01cc 000010C0 		.word	-1072693248
 410 01d0 00001080 		.word	-2146435072
 411 01d4 08E0FFFD 		.word	-33562616
 412 01d8 10000000 		.word	.LC1
 413              		.cfi_endproc
 414              	.LFE123:
 415              		.size	sdcConnect, .-sdcConnect
 416 01dc AFF30080 		.section	.text.sdcRead,"ax",%progbits
 417              		.align	2
 418              		.p2align 4,,15
 419              		.global	sdcRead
 420              		.thumb
 421              		.thumb_func
 422              		.type	sdcRead, %function
 423              	sdcRead:
 424              	.LFB125:
 425              		.loc 1 390 0
 426              		.cfi_startproc
 427              		@ args = 0, pretend = 0, frame = 0
 428              		@ frame_needed = 0, uses_anonymous_args = 0
 429              	.LVL39:
 430 0000 F8B5     		push	{r3, r4, r5, r6, r7, lr}
 431              		.cfi_def_cfa_offset 24
 432              		.cfi_offset 3, -24
 433              		.cfi_offset 4, -20
 434              		.cfi_offset 5, -16
 435              		.cfi_offset 6, -12
 436              		.cfi_offset 7, -8
 437              		.cfi_offset 14, -4
 438              		.loc 1 390 0
 439 0002 0E46     		mov	r6, r1
 440 0004 1746     		mov	r7, r2
 441 0006 1D46     		mov	r5, r3
 442              		.loc 1 393 0
 443 0008 0446     		mov	r4, r0
 444 000a 90B1     		cbz	r0, .L49
 445              		.loc 1 393 0 is_stmt 0 discriminator 2
 446 000c 8AB1     		cbz	r2, .L49
 447              		.loc 1 393 0 discriminator 4
 448 000e 83B1     		cbz	r3, .L49
 449              	.LVL40:
 450              	.L50:
 451              		.loc 1 394 0 is_stmt 1
 452 0010 2379     		ldrb	r3, [r4, #4]	@ zero_extendqisi2
 453 0012 052B     		cmp	r3, #5
 454 0014 02D0     		beq	.L51
 455              		.loc 1 394 0 is_stmt 0 discriminator 1
 456 0016 0E48     		ldr	r0, .L64
ARM GAS  /tmp/ccpX5ZVl.s 			page 9


 457 0018 FFF7FEFF 		bl	chDbgPanic
 458              	.LVL41:
 459              	.L51:
 460 001c 701E     		subs	r0, r6, #1
 461              		.loc 1 396 0 is_stmt 1
 462 001e A36A     		ldr	r3, [r4, #40]
 463 0020 2844     		add	r0, r0, r5
 464 0022 9842     		cmp	r0, r3
 465 0024 09D9     		bls	.L52
 466              		.loc 1 397 0
 467 0026 636B     		ldr	r3, [r4, #52]
 468 0028 43F08003 		orr	r3, r3, #128
 469 002c 6363     		str	r3, [r4, #52]
 470              		.loc 1 398 0
 471 002e 0120     		movs	r0, #1
 472 0030 F8BD     		pop	{r3, r4, r5, r6, r7, pc}
 473              	.LVL42:
 474              	.L49:
 475              		.loc 1 393 0 discriminator 5
 476 0032 0848     		ldr	r0, .L64+4
 477              	.LVL43:
 478 0034 FFF7FEFF 		bl	chDbgPanic
 479              	.LVL44:
 480 0038 EAE7     		b	.L50
 481              	.L52:
 482              	.LVL45:
 483              	.LBB8:
 484              	.LBB9:
 485              		.loc 1 402 0
 486 003a 0620     		movs	r0, #6
 487              		.loc 1 404 0
 488 003c 2B46     		mov	r3, r5
 489              		.loc 1 402 0
 490 003e 2071     		strb	r0, [r4, #4]
 491              		.loc 1 404 0
 492 0040 3146     		mov	r1, r6
 493 0042 3A46     		mov	r2, r7
 494 0044 2046     		mov	r0, r4
 495 0046 FFF7FEFF 		bl	sdc_lld_read
 496              	.LVL46:
 497              		.loc 1 407 0
 498 004a 0523     		movs	r3, #5
 499 004c 2371     		strb	r3, [r4, #4]
 500              	.LBE9:
 501              	.LBE8:
 502              		.loc 1 409 0
 503 004e F8BD     		pop	{r3, r4, r5, r6, r7, pc}
 504              	.LVL47:
 505              	.L65:
 506              		.align	2
 507              	.L64:
 508 0050 40000000 		.word	.LC4
 509 0054 34000000 		.word	.LC3
 510              		.cfi_endproc
 511              	.LFE125:
 512              		.size	sdcRead, .-sdcRead
 513 0058 AFF30080 		.section	.text.sdcWrite,"ax",%progbits
ARM GAS  /tmp/ccpX5ZVl.s 			page 10


 513      AFF30080 
 514              		.align	2
 515              		.p2align 4,,15
 516              		.global	sdcWrite
 517              		.thumb
 518              		.thumb_func
 519              		.type	sdcWrite, %function
 520              	sdcWrite:
 521              	.LFB126:
 522              		.loc 1 428 0
 523              		.cfi_startproc
 524              		@ args = 0, pretend = 0, frame = 0
 525              		@ frame_needed = 0, uses_anonymous_args = 0
 526              	.LVL48:
 527 0000 F8B5     		push	{r3, r4, r5, r6, r7, lr}
 528              		.cfi_def_cfa_offset 24
 529              		.cfi_offset 3, -24
 530              		.cfi_offset 4, -20
 531              		.cfi_offset 5, -16
 532              		.cfi_offset 6, -12
 533              		.cfi_offset 7, -8
 534              		.cfi_offset 14, -4
 535              		.loc 1 428 0
 536 0002 0E46     		mov	r6, r1
 537 0004 1746     		mov	r7, r2
 538 0006 1D46     		mov	r5, r3
 539              		.loc 1 431 0
 540 0008 0446     		mov	r4, r0
 541 000a 90B1     		cbz	r0, .L67
 542              		.loc 1 431 0 is_stmt 0 discriminator 2
 543 000c 8AB1     		cbz	r2, .L67
 544              		.loc 1 431 0 discriminator 4
 545 000e 83B1     		cbz	r3, .L67
 546              	.LVL49:
 547              	.L68:
 548              		.loc 1 432 0 is_stmt 1
 549 0010 2379     		ldrb	r3, [r4, #4]	@ zero_extendqisi2
 550 0012 052B     		cmp	r3, #5
 551 0014 02D0     		beq	.L69
 552              		.loc 1 432 0 is_stmt 0 discriminator 1
 553 0016 0E48     		ldr	r0, .L82
 554 0018 FFF7FEFF 		bl	chDbgPanic
 555              	.LVL50:
 556              	.L69:
 557 001c 701E     		subs	r0, r6, #1
 558              		.loc 1 434 0 is_stmt 1
 559 001e A36A     		ldr	r3, [r4, #40]
 560 0020 2844     		add	r0, r0, r5
 561 0022 9842     		cmp	r0, r3
 562 0024 09D9     		bls	.L70
 563              		.loc 1 435 0
 564 0026 636B     		ldr	r3, [r4, #52]
 565 0028 43F08003 		orr	r3, r3, #128
 566 002c 6363     		str	r3, [r4, #52]
 567              		.loc 1 436 0
 568 002e 0120     		movs	r0, #1
 569 0030 F8BD     		pop	{r3, r4, r5, r6, r7, pc}
ARM GAS  /tmp/ccpX5ZVl.s 			page 11


 570              	.LVL51:
 571              	.L67:
 572              		.loc 1 431 0 discriminator 5
 573 0032 0848     		ldr	r0, .L82+4
 574              	.LVL52:
 575 0034 FFF7FEFF 		bl	chDbgPanic
 576              	.LVL53:
 577 0038 EAE7     		b	.L68
 578              	.L70:
 579              	.LVL54:
 580              	.LBB12:
 581              	.LBB13:
 582              		.loc 1 440 0
 583 003a 0720     		movs	r0, #7
 584              		.loc 1 442 0
 585 003c 2B46     		mov	r3, r5
 586              		.loc 1 440 0
 587 003e 2071     		strb	r0, [r4, #4]
 588              		.loc 1 442 0
 589 0040 3146     		mov	r1, r6
 590 0042 3A46     		mov	r2, r7
 591 0044 2046     		mov	r0, r4
 592 0046 FFF7FEFF 		bl	sdc_lld_write
 593              	.LVL55:
 594              		.loc 1 445 0
 595 004a 0523     		movs	r3, #5
 596 004c 2371     		strb	r3, [r4, #4]
 597              	.LBE13:
 598              	.LBE12:
 599              		.loc 1 447 0
 600 004e F8BD     		pop	{r3, r4, r5, r6, r7, pc}
 601              	.LVL56:
 602              	.L83:
 603              		.align	2
 604              	.L82:
 605 0050 60000000 		.word	.LC6
 606 0054 50000000 		.word	.LC5
 607              		.cfi_endproc
 608              	.LFE126:
 609              		.size	sdcWrite, .-sdcWrite
 610 0058 AFF30080 		.section	.text.sdcSync,"ax",%progbits
 610      AFF30080 
 611              		.align	2
 612              		.p2align 4,,15
 613              		.global	sdcSync
 614              		.thumb
 615              		.thumb_func
 616              		.type	sdcSync, %function
 617              	sdcSync:
 618              	.LFB128:
 619              		.loc 1 482 0
 620              		.cfi_startproc
 621              		@ args = 0, pretend = 0, frame = 0
 622              		@ frame_needed = 0, uses_anonymous_args = 0
 623              	.LVL57:
 624 0000 38B5     		push	{r3, r4, r5, lr}
 625              		.cfi_def_cfa_offset 16
ARM GAS  /tmp/ccpX5ZVl.s 			page 12


 626              		.cfi_offset 3, -16
 627              		.cfi_offset 4, -12
 628              		.cfi_offset 5, -8
 629              		.cfi_offset 14, -4
 630              		.loc 1 485 0
 631 0002 0446     		mov	r4, r0
 632 0004 58B1     		cbz	r0, .L89
 633              	.LVL58:
 634              	.L85:
 635              		.loc 1 487 0
 636 0006 2579     		ldrb	r5, [r4, #4]	@ zero_extendqisi2
 637 0008 052D     		cmp	r5, #5
 638 000a 01D0     		beq	.L90
 639              		.loc 1 488 0
 640 000c 0120     		movs	r0, #1
 641              		.loc 1 498 0
 642 000e 38BD     		pop	{r3, r4, r5, pc}
 643              	.LVL59:
 644              	.L90:
 645              	.LBB16:
 646              	.LBB17:
 647              		.loc 1 491 0
 648 0010 0823     		movs	r3, #8
 649 0012 2371     		strb	r3, [r4, #4]
 650              		.loc 1 493 0
 651 0014 2046     		mov	r0, r4
 652 0016 FFF7FEFF 		bl	sdc_lld_sync
 653              	.LVL60:
 654              		.loc 1 496 0
 655 001a 2571     		strb	r5, [r4, #4]
 656 001c 38BD     		pop	{r3, r4, r5, pc}
 657              	.LVL61:
 658              	.L89:
 659              	.LBE17:
 660              	.LBE16:
 661              		.loc 1 485 0 discriminator 1
 662 001e 0248     		ldr	r0, .L91
 663              	.LVL62:
 664 0020 FFF7FEFF 		bl	chDbgPanic
 665              	.LVL63:
 666 0024 EFE7     		b	.L85
 667              	.L92:
 668 0026 00BF     		.align	2
 669              	.L91:
 670 0028 70000000 		.word	.LC7
 671              		.cfi_endproc
 672              	.LFE128:
 673              		.size	sdcSync, .-sdcSync
 674 002c AFF30080 		.section	.text._sdc_wait_for_transfer_state,"ax",%progbits
 675              		.align	2
 676              		.p2align 4,,15
 677              		.global	_sdc_wait_for_transfer_state
 678              		.thumb
 679              		.thumb_func
 680              		.type	_sdc_wait_for_transfer_state, %function
 681              	_sdc_wait_for_transfer_state:
 682              	.LFB118:
ARM GAS  /tmp/ccpX5ZVl.s 			page 13


 683              		.loc 1 82 0
 684              		.cfi_startproc
 685              		@ args = 0, pretend = 0, frame = 8
 686              		@ frame_needed = 0, uses_anonymous_args = 0
 687              	.LVL64:
 688 0000 10B5     		push	{r4, lr}
 689              		.cfi_def_cfa_offset 8
 690              		.cfi_offset 4, -8
 691              		.cfi_offset 14, -4
 692 0002 0446     		mov	r4, r0
 693 0004 82B0     		sub	sp, sp, #8
 694              		.cfi_def_cfa_offset 16
 695              	.LVL65:
 696              	.L97:
 697              		.loc 1 86 0
 698 0006 01AB     		add	r3, sp, #4
 699 0008 2046     		mov	r0, r4
 700 000a 0D21     		movs	r1, #13
 701 000c A26B     		ldr	r2, [r4, #56]
 702 000e FFF7FEFF 		bl	sdc_lld_send_cmd_short_crc
 703              	.LVL66:
 704              		.loc 1 88 0
 705 0012 0A4B     		ldr	r3, .L104
 706              		.loc 1 86 0
 707 0014 78B9     		cbnz	r0, .L94
 708              		.loc 1 88 0
 709 0016 019A     		ldr	r2, [sp, #4]
 710 0018 1340     		ands	r3, r3, r2
 711              		.loc 1 90 0
 712 001a C2F34321 		ubfx	r1, r2, #9, #4
 713              		.loc 1 87 0
 714 001e 4BB9     		cbnz	r3, .L98
 715              		.loc 1 90 0
 716 0020 0429     		cmp	r1, #4
 717 0022 08D0     		beq	.L94
 718              		.loc 1 97 0
 719 0024 4FF00100 		mov	r0, #1
 720              		.loc 1 90 0
 721 0028 04D3     		bcc	.L98
 722 002a 0729     		cmp	r1, #7
 723 002c 02D8     		bhi	.L98
 724              		.loc 1 97 0
 725 002e FFF7FEFF 		bl	chThdSleep
 726              	.LVL67:
 727              		.loc 1 105 0
 728 0032 E8E7     		b	.L97
 729              	.L98:
 730              		.loc 1 89 0
 731 0034 0120     		movs	r0, #1
 732              	.L94:
 733              		.loc 1 108 0
 734 0036 02B0     		add	sp, sp, #8
 735              		.cfi_def_cfa_offset 8
 736              		@ sp needed
 737 0038 10BD     		pop	{r4, pc}
 738              	.LVL68:
 739              	.L105:
ARM GAS  /tmp/ccpX5ZVl.s 			page 14


 740 003a 00BF     		.align	2
 741              	.L104:
 742 003c 08E0FFFD 		.word	-33562616
 743              		.cfi_endproc
 744              	.LFE118:
 745              		.size	_sdc_wait_for_transfer_state, .-_sdc_wait_for_transfer_state
 746              		.section	.text.sdcDisconnect,"ax",%progbits
 747              		.align	2
 748              		.p2align 4,,15
 749              		.global	sdcDisconnect
 750              		.thumb
 751              		.thumb_func
 752              		.type	sdcDisconnect, %function
 753              	sdcDisconnect:
 754              	.LFB124:
 755              		.loc 1 346 0
 756              		.cfi_startproc
 757              		@ args = 0, pretend = 0, frame = 0
 758              		@ frame_needed = 0, uses_anonymous_args = 0
 759              	.LVL69:
 760 0000 38B5     		push	{r3, r4, r5, lr}
 761              		.cfi_def_cfa_offset 16
 762              		.cfi_offset 3, -16
 763              		.cfi_offset 4, -12
 764              		.cfi_offset 5, -8
 765              		.cfi_offset 14, -4
 766              		.loc 1 348 0
 767 0002 0446     		mov	r4, r0
 768 0004 48B3     		cbz	r0, .L120
 769              	.LVL70:
 770              	.L107:
 771              	.LBB25:
 772              		.loc 1 350 0
 773 0006 2023     		movs	r3, #32
 774              	@ 350 "../../../os/hal/src/sdc.c" 1
 775 0008 83F31188 		msr     BASEPRI, r3
 776              	@ 0 "" 2
 777              		.thumb
 778              	.LBE25:
 779 000c FFF7FEFF 		bl	dbg_check_lock
 780              	.LVL71:
 781              		.loc 1 351 0
 782 0010 2379     		ldrb	r3, [r4, #4]	@ zero_extendqisi2
 783 0012 022B     		cmp	r3, #2
 784 0014 19D0     		beq	.L111
 785              		.loc 1 351 0 is_stmt 0 discriminator 1
 786 0016 052B     		cmp	r3, #5
 787 0018 05D0     		beq	.L110
 788              		.loc 1 351 0 discriminator 2
 789 001a 1248     		ldr	r0, .L121
 790 001c FFF7FEFF 		bl	chDbgPanic
 791              	.LVL72:
 792              		.loc 1 353 0 is_stmt 1 discriminator 2
 793 0020 2379     		ldrb	r3, [r4, #4]	@ zero_extendqisi2
 794 0022 022B     		cmp	r3, #2
 795 0024 11D0     		beq	.L111
 796              	.L110:
ARM GAS  /tmp/ccpX5ZVl.s 			page 15


 797              		.loc 1 357 0
 798 0026 0423     		movs	r3, #4
 799 0028 2371     		strb	r3, [r4, #4]
 800              		.loc 1 358 0
 801 002a FFF7FEFF 		bl	dbg_check_unlock
 802              	.LVL73:
 803              	.LBB26:
 804 002e 0023     		movs	r3, #0
 805              	@ 358 "../../../os/hal/src/sdc.c" 1
 806 0030 83F31188 		msr     BASEPRI, r3
 807              	@ 0 "" 2
 808              		.thumb
 809              	.LBE26:
 810              		.loc 1 361 0
 811 0034 2046     		mov	r0, r4
 812 0036 FFF7FEFF 		bl	_sdc_wait_for_transfer_state
 813              	.LVL74:
 814 003a 0546     		mov	r5, r0
 815              		.loc 1 362 0
 816 003c 2046     		mov	r0, r4
 817              		.loc 1 368 0
 818 003e FFF7FEFF 		bl	sdc_lld_stop_clk
 819              	.LVL75:
 820              		.loc 1 369 0
 821 0042 0223     		movs	r3, #2
 822 0044 2371     		strb	r3, [r4, #4]
 823              		.loc 1 371 0
 824 0046 2846     		mov	r0, r5
 825 0048 38BD     		pop	{r3, r4, r5, pc}
 826              	.LVL76:
 827              	.L111:
 828              	.LBB27:
 829              	.LBB28:
 830              		.loc 1 354 0
 831 004a FFF7FEFF 		bl	dbg_check_unlock
 832              	.LVL77:
 833              	.LBB29:
 834 004e 0023     		movs	r3, #0
 835              	@ 354 "../../../os/hal/src/sdc.c" 1
 836 0050 83F31188 		msr     BASEPRI, r3
 837              	@ 0 "" 2
 838              		.thumb
 839 0054 1D46     		mov	r5, r3
 840              	.LBE29:
 841              	.LBE28:
 842              	.LBE27:
 843              		.loc 1 371 0
 844 0056 2846     		mov	r0, r5
 845 0058 38BD     		pop	{r3, r4, r5, pc}
 846              	.LVL78:
 847              	.L120:
 848              		.loc 1 348 0 discriminator 1
 849 005a 0348     		ldr	r0, .L121+4
 850              	.LVL79:
 851 005c FFF7FEFF 		bl	chDbgPanic
 852              	.LVL80:
 853 0060 D1E7     		b	.L107
ARM GAS  /tmp/ccpX5ZVl.s 			page 16


 854              	.L122:
 855 0062 00BF     		.align	2
 856              	.L121:
 857 0064 90000000 		.word	.LC9
 858 0068 7C000000 		.word	.LC8
 859              		.cfi_endproc
 860              	.LFE124:
 861              		.size	sdcDisconnect, .-sdcDisconnect
 862 006c AFF30080 		.section	.text.sdcInit,"ax",%progbits
 863              		.align	2
 864              		.p2align 4,,15
 865              		.global	sdcInit
 866              		.thumb
 867              		.thumb_func
 868              		.type	sdcInit, %function
 869              	sdcInit:
 870              	.LFB119:
 871              		.loc 1 121 0
 872              		.cfi_startproc
 873              		@ args = 0, pretend = 0, frame = 0
 874              		@ frame_needed = 0, uses_anonymous_args = 0
 875              		@ link register save eliminated.
 876              		.loc 1 123 0
 877 0000 FFF7FEBF 		b	sdc_lld_init
 878              	.LVL81:
 879              		.cfi_endproc
 880              	.LFE119:
 881              		.size	sdcInit, .-sdcInit
 882 0004 AFF30080 		.section	.text.sdcObjectInit,"ax",%progbits
 882      AFF30080 
 882      AFF30080 
 883              		.align	2
 884              		.p2align 4,,15
 885              		.global	sdcObjectInit
 886              		.thumb
 887              		.thumb_func
 888              		.type	sdcObjectInit, %function
 889              	sdcObjectInit:
 890              	.LFB120:
 891              		.loc 1 133 0
 892              		.cfi_startproc
 893              		@ args = 0, pretend = 0, frame = 0
 894              		@ frame_needed = 0, uses_anonymous_args = 0
 895              		@ link register save eliminated.
 896              	.LVL82:
 897              		.loc 1 135 0
 898 0000 044B     		ldr	r3, .L125
 899 0002 0360     		str	r3, [r0]
 900              		.loc 1 136 0
 901 0004 0122     		movs	r2, #1
 902              		.loc 1 137 0
 903 0006 0023     		movs	r3, #0
 904              		.loc 1 136 0
 905 0008 0271     		strb	r2, [r0, #4]
 906              		.loc 1 137 0
 907 000a 4363     		str	r3, [r0, #52]
 908              		.loc 1 138 0
ARM GAS  /tmp/ccpX5ZVl.s 			page 17


 909 000c C362     		str	r3, [r0, #44]
 910              		.loc 1 139 0
 911 000e 8362     		str	r3, [r0, #40]
 912 0010 7047     		bx	lr
 913              	.L126:
 914 0012 00BF     		.align	2
 915              	.L125:
 916 0014 00000000 		.word	.LANCHOR0
 917              		.cfi_endproc
 918              	.LFE120:
 919              		.size	sdcObjectInit, .-sdcObjectInit
 920 0018 AFF30080 		.section	.text.sdcStart,"ax",%progbits
 920      AFF30080 
 921              		.align	2
 922              		.p2align 4,,15
 923              		.global	sdcStart
 924              		.thumb
 925              		.thumb_func
 926              		.type	sdcStart, %function
 927              	sdcStart:
 928              	.LFB121:
 929              		.loc 1 152 0
 930              		.cfi_startproc
 931              		@ args = 0, pretend = 0, frame = 0
 932              		@ frame_needed = 0, uses_anonymous_args = 0
 933              	.LVL83:
 934 0000 38B5     		push	{r3, r4, r5, lr}
 935              		.cfi_def_cfa_offset 16
 936              		.cfi_offset 3, -16
 937              		.cfi_offset 4, -12
 938              		.cfi_offset 5, -8
 939              		.cfi_offset 14, -4
 940              		.loc 1 152 0
 941 0002 0D46     		mov	r5, r1
 942              		.loc 1 154 0
 943 0004 0446     		mov	r4, r0
 944 0006 B8B1     		cbz	r0, .L131
 945              	.LVL84:
 946              	.L128:
 947              	.LBB30:
 948              		.loc 1 156 0
 949 0008 2023     		movs	r3, #32
 950              	@ 156 "../../../os/hal/src/sdc.c" 1
 951 000a 83F31188 		msr     BASEPRI, r3
 952              	@ 0 "" 2
 953              		.thumb
 954              	.LBE30:
 955 000e FFF7FEFF 		bl	dbg_check_lock
 956              	.LVL85:
 957              		.loc 1 157 0
 958 0012 2379     		ldrb	r3, [r4, #4]	@ zero_extendqisi2
 959 0014 013B     		subs	r3, r3, #1
 960 0016 012B     		cmp	r3, #1
 961 0018 02D9     		bls	.L129
 962              		.loc 1 157 0 is_stmt 0 discriminator 1
 963 001a 0948     		ldr	r0, .L132
 964 001c FFF7FEFF 		bl	chDbgPanic
ARM GAS  /tmp/ccpX5ZVl.s 			page 18


 965              	.LVL86:
 966              	.L129:
 967              		.loc 1 160 0 is_stmt 1
 968 0020 2046     		mov	r0, r4
 969              		.loc 1 159 0
 970 0022 E562     		str	r5, [r4, #44]
 971              		.loc 1 160 0
 972 0024 FFF7FEFF 		bl	sdc_lld_start
 973              	.LVL87:
 974              		.loc 1 161 0
 975 0028 0223     		movs	r3, #2
 976 002a 2371     		strb	r3, [r4, #4]
 977              		.loc 1 162 0
 978 002c FFF7FEFF 		bl	dbg_check_unlock
 979              	.LVL88:
 980              	.LBB31:
 981 0030 0023     		movs	r3, #0
 982              	@ 162 "../../../os/hal/src/sdc.c" 1
 983 0032 83F31188 		msr     BASEPRI, r3
 984              	@ 0 "" 2
 985              		.thumb
 986 0036 38BD     		pop	{r3, r4, r5, pc}
 987              	.LVL89:
 988              	.L131:
 989              	.LBE31:
 990              		.loc 1 154 0 discriminator 1
 991 0038 0248     		ldr	r0, .L132+4
 992              	.LVL90:
 993 003a FFF7FEFF 		bl	chDbgPanic
 994              	.LVL91:
 995 003e E3E7     		b	.L128
 996              	.L133:
 997              		.align	2
 998              	.L132:
 999 0040 B4000000 		.word	.LC11
 1000 0044 A4000000 		.word	.LC10
 1001              		.cfi_endproc
 1002              	.LFE121:
 1003              		.size	sdcStart, .-sdcStart
 1004 0048 AFF30080 		.section	.text.sdcStop,"ax",%progbits
 1004      AFF30080 
 1005              		.align	2
 1006              		.p2align 4,,15
 1007              		.global	sdcStop
 1008              		.thumb
 1009              		.thumb_func
 1010              		.type	sdcStop, %function
 1011              	sdcStop:
 1012              	.LFB122:
 1013              		.loc 1 172 0
 1014              		.cfi_startproc
 1015              		@ args = 0, pretend = 0, frame = 0
 1016              		@ frame_needed = 0, uses_anonymous_args = 0
 1017              	.LVL92:
 1018 0000 10B5     		push	{r4, lr}
 1019              		.cfi_def_cfa_offset 8
 1020              		.cfi_offset 4, -8
ARM GAS  /tmp/ccpX5ZVl.s 			page 19


 1021              		.cfi_offset 14, -4
 1022              		.loc 1 174 0
 1023 0002 0446     		mov	r4, r0
 1024 0004 B0B1     		cbz	r0, .L138
 1025              	.LVL93:
 1026              	.L135:
 1027              	.LBB32:
 1028              		.loc 1 176 0
 1029 0006 2023     		movs	r3, #32
 1030              	@ 176 "../../../os/hal/src/sdc.c" 1
 1031 0008 83F31188 		msr     BASEPRI, r3
 1032              	@ 0 "" 2
 1033              		.thumb
 1034              	.LBE32:
 1035 000c FFF7FEFF 		bl	dbg_check_lock
 1036              	.LVL94:
 1037              		.loc 1 177 0
 1038 0010 2379     		ldrb	r3, [r4, #4]	@ zero_extendqisi2
 1039 0012 013B     		subs	r3, r3, #1
 1040 0014 012B     		cmp	r3, #1
 1041 0016 02D9     		bls	.L136
 1042              		.loc 1 177 0 is_stmt 0 discriminator 1
 1043 0018 0848     		ldr	r0, .L139
 1044 001a FFF7FEFF 		bl	chDbgPanic
 1045              	.LVL95:
 1046              	.L136:
 1047              		.loc 1 179 0 is_stmt 1
 1048 001e 2046     		mov	r0, r4
 1049 0020 FFF7FEFF 		bl	sdc_lld_stop
 1050              	.LVL96:
 1051              		.loc 1 180 0
 1052 0024 0123     		movs	r3, #1
 1053 0026 2371     		strb	r3, [r4, #4]
 1054              		.loc 1 181 0
 1055 0028 FFF7FEFF 		bl	dbg_check_unlock
 1056              	.LVL97:
 1057              	.LBB33:
 1058 002c 0023     		movs	r3, #0
 1059              	@ 181 "../../../os/hal/src/sdc.c" 1
 1060 002e 83F31188 		msr     BASEPRI, r3
 1061              	@ 0 "" 2
 1062              		.thumb
 1063 0032 10BD     		pop	{r4, pc}
 1064              	.LVL98:
 1065              	.L138:
 1066              	.LBE33:
 1067              		.loc 1 174 0 discriminator 1
 1068 0034 0248     		ldr	r0, .L139+4
 1069              	.LVL99:
 1070 0036 FFF7FEFF 		bl	chDbgPanic
 1071              	.LVL100:
 1072 003a E4E7     		b	.L135
 1073              	.L140:
 1074              		.align	2
 1075              	.L139:
 1076 003c D0000000 		.word	.LC13
 1077 0040 C4000000 		.word	.LC12
ARM GAS  /tmp/ccpX5ZVl.s 			page 20


 1078              		.cfi_endproc
 1079              	.LFE122:
 1080              		.size	sdcStop, .-sdcStop
 1081 0044 AFF30080 		.section	.text.sdcGetAndClearErrors,"ax",%progbits
 1081      AFF30080 
 1081      AFF30080 
 1082              		.align	2
 1083              		.p2align 4,,15
 1084              		.global	sdcGetAndClearErrors
 1085              		.thumb
 1086              		.thumb_func
 1087              		.type	sdcGetAndClearErrors, %function
 1088              	sdcGetAndClearErrors:
 1089              	.LFB127:
 1090              		.loc 1 457 0
 1091              		.cfi_startproc
 1092              		@ args = 0, pretend = 0, frame = 0
 1093              		@ frame_needed = 0, uses_anonymous_args = 0
 1094              	.LVL101:
 1095 0000 70B5     		push	{r4, r5, r6, lr}
 1096              		.cfi_def_cfa_offset 16
 1097              		.cfi_offset 4, -16
 1098              		.cfi_offset 5, -12
 1099              		.cfi_offset 6, -8
 1100              		.cfi_offset 14, -4
 1101              		.loc 1 460 0
 1102 0002 0446     		mov	r4, r0
 1103 0004 A0B1     		cbz	r0, .L148
 1104              	.LVL102:
 1105              	.L142:
 1106              		.loc 1 461 0
 1107 0006 2379     		ldrb	r3, [r4, #4]	@ zero_extendqisi2
 1108 0008 052B     		cmp	r3, #5
 1109 000a 02D0     		beq	.L143
 1110              		.loc 1 461 0 is_stmt 0 discriminator 1
 1111 000c 0A48     		ldr	r0, .L149
 1112 000e FFF7FEFF 		bl	chDbgPanic
 1113              	.LVL103:
 1114              	.L143:
 1115              	.LBB34:
 1116              		.loc 1 464 0 is_stmt 1
 1117 0012 2023     		movs	r3, #32
 1118              	@ 464 "../../../os/hal/src/sdc.c" 1
 1119 0014 83F31188 		msr     BASEPRI, r3
 1120              	@ 0 "" 2
 1121              		.thumb
 1122              	.LBE34:
 1123              		.loc 1 466 0
 1124 0018 0025     		movs	r5, #0
 1125              		.loc 1 464 0
 1126 001a FFF7FEFF 		bl	dbg_check_lock
 1127              	.LVL104:
 1128              		.loc 1 465 0
 1129 001e 666B     		ldr	r6, [r4, #52]
 1130              	.LVL105:
 1131              		.loc 1 466 0
 1132 0020 6563     		str	r5, [r4, #52]
ARM GAS  /tmp/ccpX5ZVl.s 			page 21


 1133              		.loc 1 467 0
 1134 0022 FFF7FEFF 		bl	dbg_check_unlock
 1135              	.LVL106:
 1136              	.LBB35:
 1137 0026 2B46     		mov	r3, r5
 1138              	@ 467 "../../../os/hal/src/sdc.c" 1
 1139 0028 83F31188 		msr     BASEPRI, r3
 1140              	@ 0 "" 2
 1141              		.thumb
 1142              	.LBE35:
 1143              		.loc 1 469 0
 1144 002c 3046     		mov	r0, r6
 1145 002e 70BD     		pop	{r4, r5, r6, pc}
 1146              	.LVL107:
 1147              	.L148:
 1148              		.loc 1 460 0 discriminator 1
 1149 0030 0248     		ldr	r0, .L149+4
 1150              	.LVL108:
 1151 0032 FFF7FEFF 		bl	chDbgPanic
 1152              	.LVL109:
 1153 0036 E6E7     		b	.L142
 1154              	.L150:
 1155              		.align	2
 1156              	.L149:
 1157 0038 FC000000 		.word	.LC15
 1158 003c E0000000 		.word	.LC14
 1159              		.cfi_endproc
 1160              	.LFE127:
 1161              		.size	sdcGetAndClearErrors, .-sdcGetAndClearErrors
 1162              		.section	.text.sdcErase,"ax",%progbits
 1163              		.align	2
 1164              		.p2align 4,,15
 1165              		.global	sdcErase
 1166              		.thumb
 1167              		.thumb_func
 1168              		.type	sdcErase, %function
 1169              	sdcErase:
 1170              	.LFB130:
 1171              		.loc 1 539 0
 1172              		.cfi_startproc
 1173              		@ args = 0, pretend = 0, frame = 8
 1174              		@ frame_needed = 0, uses_anonymous_args = 0
 1175              	.LVL110:
 1176 0000 70B5     		push	{r4, r5, r6, lr}
 1177              		.cfi_def_cfa_offset 16
 1178              		.cfi_offset 4, -16
 1179              		.cfi_offset 5, -12
 1180              		.cfi_offset 6, -8
 1181              		.cfi_offset 14, -4
 1182 0002 0D46     		mov	r5, r1
 1183 0004 82B0     		sub	sp, sp, #8
 1184              		.cfi_def_cfa_offset 24
 1185              		.loc 1 539 0
 1186 0006 1646     		mov	r6, r2
 1187              		.loc 1 542 0
 1188 0008 0446     		mov	r4, r0
 1189 000a 0028     		cmp	r0, #0
ARM GAS  /tmp/ccpX5ZVl.s 			page 22


 1190 000c 41D0     		beq	.L161
 1191              	.LVL111:
 1192              	.L152:
 1193              		.loc 1 543 0
 1194 000e 2379     		ldrb	r3, [r4, #4]	@ zero_extendqisi2
 1195 0010 052B     		cmp	r3, #5
 1196 0012 02D0     		beq	.L153
 1197              		.loc 1 543 0 is_stmt 0 discriminator 1
 1198 0014 2148     		ldr	r0, .L163
 1199 0016 FFF7FEFF 		bl	chDbgPanic
 1200              	.LVL112:
 1201              	.L153:
 1202              		.loc 1 549 0 is_stmt 1
 1203 001a 236B     		ldr	r3, [r4, #48]
 1204              		.loc 1 546 0
 1205 001c 0722     		movs	r2, #7
 1206              		.loc 1 549 0
 1207 001e DB06     		lsls	r3, r3, #27
 1208              		.loc 1 550 0
 1209 0020 58BF     		it	pl
 1210 0022 6D02     		lslpl	r5, r5, #9
 1211              	.LVL113:
 1212              		.loc 1 546 0
 1213 0024 2271     		strb	r2, [r4, #4]
 1214              		.loc 1 554 0
 1215 0026 2046     		mov	r0, r4
 1216              		.loc 1 551 0
 1217 0028 58BF     		it	pl
 1218 002a 7602     		lslpl	r6, r6, #9
 1219              	.LVL114:
 1220              		.loc 1 554 0
 1221 002c FFF7FEFF 		bl	_sdc_wait_for_transfer_state
 1222              	.LVL115:
 1223              		.loc 1 556 0
 1224 0030 2A46     		mov	r2, r5
 1225 0032 01AB     		add	r3, sp, #4
 1226 0034 2046     		mov	r0, r4
 1227 0036 2021     		movs	r1, #32
 1228 0038 FFF7FEFF 		bl	sdc_lld_send_cmd_short_crc
 1229              	.LVL116:
 1230 003c 18B9     		cbnz	r0, .L155
 1231              		.loc 1 558 0
 1232 003e 019A     		ldr	r2, [sp, #4]
 1233 0040 174B     		ldr	r3, .L163+4
 1234 0042 1340     		ands	r3, r3, r2
 1235              		.loc 1 557 0
 1236 0044 2BB1     		cbz	r3, .L162
 1237              	.LVL117:
 1238              	.L155:
 1239              	.LDL2:
 1240              		.loc 1 581 0
 1241 0046 0523     		movs	r3, #5
 1242 0048 2371     		strb	r3, [r4, #4]
 1243              		.loc 1 582 0
 1244 004a 0125     		movs	r5, #1
 1245              	.L156:
 1246              		.loc 1 583 0
ARM GAS  /tmp/ccpX5ZVl.s 			page 23


 1247 004c 2846     		mov	r0, r5
 1248 004e 02B0     		add	sp, sp, #8
 1249              		.cfi_remember_state
 1250              		.cfi_def_cfa_offset 16
 1251              		@ sp needed
 1252 0050 70BD     		pop	{r4, r5, r6, pc}
 1253              	.LVL118:
 1254              	.L162:
 1255              		.cfi_restore_state
 1256              		.loc 1 561 0
 1257 0052 3246     		mov	r2, r6
 1258 0054 2046     		mov	r0, r4
 1259 0056 2121     		movs	r1, #33
 1260 0058 01AB     		add	r3, sp, #4
 1261 005a FFF7FEFF 		bl	sdc_lld_send_cmd_short_crc
 1262              	.LVL119:
 1263 005e 0028     		cmp	r0, #0
 1264 0060 F1D1     		bne	.L155
 1265              		.loc 1 563 0
 1266 0062 019B     		ldr	r3, [sp, #4]
 1267 0064 0E4A     		ldr	r2, .L163+4
 1268 0066 1A40     		ands	r2, r2, r3
 1269              		.loc 1 562 0
 1270 0068 002A     		cmp	r2, #0
 1271 006a ECD1     		bne	.L155
 1272              		.loc 1 566 0
 1273 006c 01AB     		add	r3, sp, #4
 1274 006e 2046     		mov	r0, r4
 1275 0070 2621     		movs	r1, #38
 1276 0072 FFF7FEFF 		bl	sdc_lld_send_cmd_short_crc
 1277              	.LVL120:
 1278 0076 0546     		mov	r5, r0
 1279              	.LVL121:
 1280 0078 0028     		cmp	r0, #0
 1281 007a E4D1     		bne	.L155
 1282              		.loc 1 568 0
 1283 007c 019A     		ldr	r2, [sp, #4]
 1284 007e 084B     		ldr	r3, .L163+4
 1285 0080 1340     		ands	r3, r3, r2
 1286              		.loc 1 567 0
 1287 0082 002B     		cmp	r3, #0
 1288 0084 DFD1     		bne	.L155
 1289              		.loc 1 575 0
 1290 0086 2046     		mov	r0, r4
 1291 0088 FFF7FEFF 		bl	_sdc_wait_for_transfer_state
 1292              	.LVL122:
 1293              		.loc 1 577 0
 1294 008c 0523     		movs	r3, #5
 1295 008e 2371     		strb	r3, [r4, #4]
 1296              		.loc 1 578 0
 1297 0090 DCE7     		b	.L156
 1298              	.LVL123:
 1299              	.L161:
 1300              		.loc 1 542 0 discriminator 1
 1301 0092 0448     		ldr	r0, .L163+8
 1302              	.LVL124:
 1303 0094 FFF7FEFF 		bl	chDbgPanic
ARM GAS  /tmp/ccpX5ZVl.s 			page 24


 1304              	.LVL125:
 1305 0098 B9E7     		b	.L152
 1306              	.L164:
 1307 009a 00BF     		.align	2
 1308              	.L163:
 1309 009c 28010000 		.word	.LC17
 1310 00a0 08E0FFFD 		.word	-33562616
 1311 00a4 18010000 		.word	.LC16
 1312              		.cfi_endproc
 1313              	.LFE130:
 1314              		.size	sdcErase, .-sdcErase
 1315 00a8 AFF30080 		.section	.rodata.sdc_vmt,"a",%progbits
 1315      AFF30080 
 1316              		.align	2
 1317              		.set	.LANCHOR0,. + 0
 1318              		.type	sdc_vmt, %object
 1319              		.size	sdc_vmt, 32
 1320              	sdc_vmt:
 1321 0000 00000000 		.word	sdc_lld_is_card_inserted
 1322 0004 00000000 		.word	sdc_lld_is_write_protected
 1323 0008 00000000 		.word	sdcConnect
 1324 000c 00000000 		.word	sdcDisconnect
 1325 0010 00000000 		.word	sdcRead
 1326 0014 00000000 		.word	sdcWrite
 1327 0018 00000000 		.word	sdcSync
 1328 001c 00000000 		.word	sdcGetInfo
 1329              		.section	.rodata.str1.4,"aMS",%progbits,1
 1330              		.align	2
 1331              	.LC0:
 1332 0000 22736463 		.ascii	"\"sdcGetInfo\"()\000"
 1332      47657449 
 1332      6E666F22 
 1332      282900
 1333 000f 00       		.space	1
 1334              	.LC1:
 1335 0010 22736463 		.ascii	"\"sdcConnect\"()\000"
 1335      436F6E6E 
 1335      65637422 
 1335      282900
 1336 001f 00       		.space	1
 1337              	.LC2:
 1338 0020 6D6D6343 		.ascii	"mmcConnect(), #1\000"
 1338      6F6E6E65 
 1338      63742829 
 1338      2C202331 
 1338      00
 1339 0031 000000   		.space	3
 1340              	.LC3:
 1341 0034 22736463 		.ascii	"\"sdcRead\"()\000"
 1341      52656164 
 1341      22282900 
 1342              	.LC4:
 1343 0040 73646352 		.ascii	"sdcRead(), #1\000"
 1343      65616428 
 1343      292C2023 
 1343      3100
 1344 004e 0000     		.space	2
ARM GAS  /tmp/ccpX5ZVl.s 			page 25


 1345              	.LC5:
 1346 0050 22736463 		.ascii	"\"sdcWrite\"()\000"
 1346      57726974 
 1346      65222829 
 1346      00
 1347 005d 000000   		.space	3
 1348              	.LC6:
 1349 0060 73646357 		.ascii	"sdcWrite(), #1\000"
 1349      72697465 
 1349      28292C20 
 1349      233100
 1350 006f 00       		.space	1
 1351              	.LC7:
 1352 0070 22736463 		.ascii	"\"sdcSync\"()\000"
 1352      53796E63 
 1352      22282900 
 1353              	.LC8:
 1354 007c 22736463 		.ascii	"\"sdcDisconnect\"()\000"
 1354      44697363 
 1354      6F6E6E65 
 1354      63742228 
 1354      2900
 1355 008e 0000     		.space	2
 1356              	.LC9:
 1357 0090 73646344 		.ascii	"sdcDisconnect(), #1\000"
 1357      6973636F 
 1357      6E6E6563 
 1357      7428292C 
 1357      20233100 
 1358              	.LC10:
 1359 00a4 22736463 		.ascii	"\"sdcStart\"()\000"
 1359      53746172 
 1359      74222829 
 1359      00
 1360 00b1 000000   		.space	3
 1361              	.LC11:
 1362 00b4 73646353 		.ascii	"sdcStart(), #1\000"
 1362      74617274 
 1362      28292C20 
 1362      233100
 1363 00c3 00       		.space	1
 1364              	.LC12:
 1365 00c4 22736463 		.ascii	"\"sdcStop\"()\000"
 1365      53746F70 
 1365      22282900 
 1366              	.LC13:
 1367 00d0 73646353 		.ascii	"sdcStop(), #1\000"
 1367      746F7028 
 1367      292C2023 
 1367      3100
 1368 00de 0000     		.space	2
 1369              	.LC14:
 1370 00e0 22736463 		.ascii	"\"sdcGetAndClearErrors\"()\000"
 1370      47657441 
 1370      6E64436C 
 1370      65617245 
 1370      72726F72 
ARM GAS  /tmp/ccpX5ZVl.s 			page 26


 1371 00f9 000000   		.space	3
 1372              	.LC15:
 1373 00fc 73646347 		.ascii	"sdcGetAndClearErrors(), #1\000"
 1373      6574416E 
 1373      64436C65 
 1373      61724572 
 1373      726F7273 
 1374 0117 00       		.space	1
 1375              	.LC16:
 1376 0118 22736463 		.ascii	"\"sdcErase\"()\000"
 1376      45726173 
 1376      65222829 
 1376      00
 1377 0125 000000   		.space	3
 1378              	.LC17:
 1379 0128 73646345 		.ascii	"sdcErase(), #1\000"
 1379      72617365 
 1379      28292C20 
 1379      233100
 1380 0137 00       		.text
 1381              	.Letext0:
 1382              		.file 2 "/usr/arm-none-eabi/include/machine/_default_types.h"
 1383              		.file 3 "/usr/arm-none-eabi/include/stdint.h"
 1384              		.file 4 "../../../os/ports/GCC/ARMCMx/chtypes.h"
 1385              		.file 5 "../../../os/kernel/include/chlists.h"
 1386              		.file 6 "../../../os/kernel/include/chthreads.h"
 1387              		.file 7 "../../../os/ports/GCC/ARMCMx/chcore_v7m.h"
 1388              		.file 8 "../../../os/kernel/include/chmtx.h"
 1389              		.file 9 "../../../os/hal/platforms/STM32F4xx/stm32f4xx.h"
 1390              		.file 10 "../../../os/hal/platforms/STM32F4xx/stm32_dma.h"
 1391              		.file 11 "../../../os/hal/include/io_block.h"
 1392              		.file 12 "../../../os/hal/platforms/STM32/sdc_lld.h"
 1393              		.file 13 "../../../os/kernel/include/chdebug.h"
 1394              		.file 14 "../../../os/hal/include/mmcsd.h"
 1395              		.file 15 "../../../os/ports/common/ARMCMx/CMSIS/include/core_cm4.h"