ARM GAS  /tmp/cciw5GO7.s 			page 1


   1              		.syntax unified
   2              		.cpu cortex-m4
   3              		.fpu softvfp
   4              		.eabi_attribute 20, 1
   5              		.eabi_attribute 21, 1
   6              		.eabi_attribute 23, 3
   7              		.eabi_attribute 24, 1
   8              		.eabi_attribute 25, 1
   9              		.eabi_attribute 26, 1
  10              		.eabi_attribute 30, 2
  11              		.eabi_attribute 34, 1
  12              		.eabi_attribute 18, 4
  13              		.thumb
  14              		.file	"sdc_lld.c"
  15              		.text
  16              	.Ltext0:
  17              		.cfi_sections	.debug_frame
  18              		.section	.text.sdc_lld_collect_errors.isra.0,"ax",%progbits
  19              		.align	2
  20              		.p2align 4,,15
  21              		.thumb
  22              		.thumb_func
  23              		.type	sdc_lld_collect_errors.isra.0, %function
  24              	sdc_lld_collect_errors.isra.0:
  25              	.LFB140:
  26              		.file 1 "../../../os/hal/platforms/STM32/sdc_lld.c"
  27              		.loc 1 215 0
  28              		.cfi_startproc
  29              		@ args = 0, pretend = 0, frame = 0
  30              		@ frame_needed = 0, uses_anonymous_args = 0
  31              		@ link register save eliminated.
  32              	.LVL0:
  33              		.loc 1 218 0
  34 0000 01F00103 		and	r3, r1, #1
  35              	.LVL1:
  36              		.loc 1 220 0
  37 0004 8A07     		lsls	r2, r1, #30
  38              		.loc 1 221 0
  39 0006 48BF     		it	mi
  40 0008 43F00203 		orrmi	r3, r3, #2
  41              	.LVL2:
  42              		.loc 1 222 0
  43 000c 4A07     		lsls	r2, r1, #29
  44              		.loc 1 223 0
  45 000e 48BF     		it	mi
  46 0010 43F00803 		orrmi	r3, r3, #8
  47              	.LVL3:
  48              		.loc 1 224 0
  49 0014 0A07     		lsls	r2, r1, #28
  50              		.loc 1 225 0
  51 0016 48BF     		it	mi
  52 0018 43F00403 		orrmi	r3, r3, #4
  53              	.LVL4:
  54              		.loc 1 226 0
  55 001c CA06     		lsls	r2, r1, #27
  56              		.loc 1 227 0
  57 001e 48BF     		it	mi
ARM GAS  /tmp/cciw5GO7.s 			page 2


  58 0020 43F01003 		orrmi	r3, r3, #16
  59              	.LVL5:
  60              		.loc 1 228 0
  61 0024 8A06     		lsls	r2, r1, #26
  62              		.loc 1 229 0
  63 0026 48BF     		it	mi
  64 0028 43F02003 		orrmi	r3, r3, #32
  65              	.LVL6:
  66              		.loc 1 230 0
  67 002c 8A05     		lsls	r2, r1, #22
  68              		.loc 1 233 0
  69 002e 0268     		ldr	r2, [r0]
  70              		.loc 1 231 0
  71 0030 48BF     		it	mi
  72 0032 43F04003 		orrmi	r3, r3, #64
  73              	.LVL7:
  74              		.loc 1 233 0
  75 0036 1343     		orrs	r3, r3, r2
  76              	.LVL8:
  77 0038 0360     		str	r3, [r0]
  78 003a 7047     		bx	lr
  79              		.cfi_endproc
  80              	.LFE140:
  81              		.size	sdc_lld_collect_errors.isra.0, .-sdc_lld_collect_errors.isra.0
  82 003c AFF30080 		.section	.text.Vector104,"ax",%progbits
  83              		.align	2
  84              		.p2align 4,,15
  85              		.global	Vector104
  86              		.thumb
  87              		.thumb_func
  88              		.type	Vector104, %function
  89              	Vector104:
  90              	.LFB123:
  91              		.loc 1 274 0
  92              		.cfi_startproc
  93              		@ args = 0, pretend = 0, frame = 0
  94              		@ frame_needed = 0, uses_anonymous_args = 0
  95 0000 38B5     		push	{r3, r4, r5, lr}
  96              		.cfi_def_cfa_offset 16
  97              		.cfi_offset 3, -16
  98              		.cfi_offset 4, -12
  99              		.cfi_offset 5, -8
 100              		.cfi_offset 14, -4
 101              		.loc 1 276 0
 102 0002 FFF7FEFF 		bl	dbg_check_enter_isr
 103              	.LVL9:
 104              	.LBB5:
 105              		.loc 1 278 0
 106 0006 2023     		movs	r3, #32
 107              	@ 278 "../../../os/hal/platforms/STM32/sdc_lld.c" 1
 108 0008 83F31188 		msr     BASEPRI, r3
 109              	@ 0 "" 2
 110              		.thumb
 111              	.LBE5:
 112              		.loc 1 284 0
 113 000c 0A4C     		ldr	r4, .L33
 114              		.loc 1 278 0
ARM GAS  /tmp/cciw5GO7.s 			page 3


 115 000e FFF7FEFF 		bl	dbg_check_lock_from_isr
 116              	.LVL10:
 117              		.loc 1 284 0
 118 0012 E06B     		ldr	r0, [r4, #60]
 119              		.loc 1 282 0
 120 0014 094B     		ldr	r3, .L33+4
 121 0016 0025     		movs	r5, #0
 122 0018 DD63     		str	r5, [r3, #60]
 123              		.loc 1 284 0
 124 001a 10B1     		cbz	r0, .L27
 125              		.loc 1 285 0
 126 001c FFF7FEFF 		bl	chSchReadyI
 127              	.LVL11:
 128              		.loc 1 286 0
 129 0020 E563     		str	r5, [r4, #60]
 130              	.L27:
 131              		.loc 1 289 0
 132 0022 FFF7FEFF 		bl	dbg_check_unlock_from_isr
 133              	.LVL12:
 134              	.LBB6:
 135 0026 0023     		movs	r3, #0
 136              	@ 289 "../../../os/hal/platforms/STM32/sdc_lld.c" 1
 137 0028 83F31188 		msr     BASEPRI, r3
 138              	@ 0 "" 2
 139              		.thumb
 140              	.LBE6:
 141              		.loc 1 291 0
 142 002c FFF7FEFF 		bl	dbg_check_leave_isr
 143              	.LVL13:
 144              		.loc 1 292 0
 145 0030 BDE83840 		pop	{r3, r4, r5, lr}
 146              		.cfi_restore 14
 147              		.cfi_restore 5
 148              		.cfi_restore 4
 149              		.cfi_restore 3
 150              		.cfi_def_cfa_offset 0
 151              		.loc 1 291 0
 152 0034 FFF7FEBF 		b	_port_irq_epilogue
 153              	.LVL14:
 154              	.L34:
 155              		.align	2
 156              	.L33:
 157 0038 00000000 		.word	.LANCHOR0
 158 003c 002C0140 		.word	1073818624
 159              		.cfi_endproc
 160              	.LFE123:
 161              		.size	Vector104, .-Vector104
 162              		.section	.text.sdc_lld_init,"ax",%progbits
 163              		.align	2
 164              		.p2align 4,,15
 165              		.global	sdc_lld_init
 166              		.thumb
 167              		.thumb_func
 168              		.type	sdc_lld_init, %function
 169              	sdc_lld_init:
 170              	.LFB124:
 171              		.loc 1 303 0
ARM GAS  /tmp/cciw5GO7.s 			page 4


 172              		.cfi_startproc
 173              		@ args = 0, pretend = 0, frame = 0
 174              		@ frame_needed = 0, uses_anonymous_args = 0
 175 0000 10B5     		push	{r4, lr}
 176              		.cfi_def_cfa_offset 8
 177              		.cfi_offset 4, -8
 178              		.cfi_offset 14, -4
 179              		.loc 1 305 0
 180 0002 054C     		ldr	r4, .L37
 181 0004 2046     		mov	r0, r4
 182 0006 FFF7FEFF 		bl	sdcObjectInit
 183              	.LVL15:
 184              		.loc 1 306 0
 185 000a 0021     		movs	r1, #0
 186              		.loc 1 307 0
 187 000c 034A     		ldr	r2, .L37+4
 188              		.loc 1 309 0
 189 000e 044B     		ldr	r3, .L37+8
 190              		.loc 1 306 0
 191 0010 E163     		str	r1, [r4, #60]
 192              		.loc 1 307 0
 193 0012 6264     		str	r2, [r4, #68]
 194              		.loc 1 309 0
 195 0014 A364     		str	r3, [r4, #72]
 196 0016 10BD     		pop	{r4, pc}
 197              	.L38:
 198              		.align	2
 199              	.L37:
 200 0018 00000000 		.word	.LANCHOR0
 201 001c 84000000 		.word	_stm32_dma_streams+132
 202 0020 002C0140 		.word	1073818624
 203              		.cfi_endproc
 204              	.LFE124:
 205              		.size	sdc_lld_init, .-sdc_lld_init
 206 0024 AFF30080 		.section	.text.sdc_lld_start,"ax",%progbits
 206      AFF30080 
 206      AFF30080 
 207              		.align	2
 208              		.p2align 4,,15
 209              		.global	sdc_lld_start
 210              		.thumb
 211              		.thumb_func
 212              		.type	sdc_lld_start, %function
 213              	sdc_lld_start:
 214              	.LFB125:
 215              		.loc 1 320 0
 216              		.cfi_startproc
 217              		@ args = 0, pretend = 0, frame = 0
 218              		@ frame_needed = 0, uses_anonymous_args = 0
 219              	.LVL16:
 220              		.loc 1 334 0
 221 0000 0379     		ldrb	r3, [r0, #4]	@ zero_extendqisi2
 222              		.loc 1 329 0
 223 0002 144A     		ldr	r2, .L48
 224              		.loc 1 334 0
 225 0004 012B     		cmp	r3, #1
 226              		.loc 1 320 0
ARM GAS  /tmp/cciw5GO7.s 			page 5


 227 0006 10B5     		push	{r4, lr}
 228              		.cfi_def_cfa_offset 8
 229              		.cfi_offset 4, -8
 230              		.cfi_offset 14, -4
 231              		.loc 1 329 0
 232 0008 0264     		str	r2, [r0, #64]
 233              		.loc 1 334 0
 234 000a 06D0     		beq	.L46
 235              	.LVL17:
 236              	.L40:
 237              		.loc 1 349 0
 238 000c 124B     		ldr	r3, .L48+4
 239 000e 0022     		movs	r2, #0
 240 0010 1A60     		str	r2, [r3]
 241              		.loc 1 350 0
 242 0012 5A60     		str	r2, [r3, #4]
 243              		.loc 1 351 0
 244 0014 DA62     		str	r2, [r3, #44]
 245              		.loc 1 352 0
 246 0016 5A62     		str	r2, [r3, #36]
 247 0018 10BD     		pop	{r4, pc}
 248              	.LVL18:
 249              	.L46:
 250              	.LBB7:
 251              		.loc 1 337 0
 252 001a 0022     		movs	r2, #0
 253 001c 0446     		mov	r4, r0
 254 001e 1346     		mov	r3, r2
 255 0020 406C     		ldr	r0, [r0, #68]
 256              	.LVL19:
 257 0022 0921     		movs	r1, #9
 258 0024 FFF7FEFF 		bl	dmaStreamAllocate
 259              	.LVL20:
 260              		.loc 1 338 0
 261 0028 78B9     		cbnz	r0, .L47
 262              	.LVL21:
 263              	.L41:
 264              		.loc 1 339 0
 265 002a 636C     		ldr	r3, [r4, #68]
 266 002c 0B49     		ldr	r1, .L48+8
 267 002e 1B68     		ldr	r3, [r3]
 268              		.loc 1 341 0
 269 0030 0722     		movs	r2, #7
 270              		.loc 1 339 0
 271 0032 9960     		str	r1, [r3, #8]
 272              		.loc 1 343 0
 273 0034 3120     		movs	r0, #49
 274              		.loc 1 341 0
 275 0036 5A61     		str	r2, [r3, #20]
 276              		.loc 1 343 0
 277 0038 9021     		movs	r1, #144
 278 003a FFF7FEFF 		bl	nvicEnableVector
 279              	.LVL22:
 280              		.loc 1 345 0
 281 003e 084A     		ldr	r2, .L48+12
 282 0040 536C     		ldr	r3, [r2, #68]
 283 0042 43F40063 		orr	r3, r3, #2048
ARM GAS  /tmp/cciw5GO7.s 			page 6


 284 0046 5364     		str	r3, [r2, #68]
 285 0048 E0E7     		b	.L40
 286              	.LVL23:
 287              	.L47:
 288              		.loc 1 338 0 discriminator 1
 289 004a 0648     		ldr	r0, .L48+16
 290              	.LVL24:
 291 004c FFF7FEFF 		bl	chDbgPanic
 292              	.LVL25:
 293 0050 EBE7     		b	.L41
 294              	.L49:
 295 0052 00BF     		.align	2
 296              	.L48:
 297 0054 2054A308 		.word	144921632
 298 0058 002C0140 		.word	1073818624
 299 005c 802C0140 		.word	1073818752
 300 0060 00380240 		.word	1073887232
 301 0064 00000000 		.word	.LC0
 302              	.LBE7:
 303              		.cfi_endproc
 304              	.LFE125:
 305              		.size	sdc_lld_start, .-sdc_lld_start
 306 0068 AFF30080 		.section	.text.sdc_lld_stop,"ax",%progbits
 306      AFF30080 
 307              		.align	2
 308              		.p2align 4,,15
 309              		.global	sdc_lld_stop
 310              		.thumb
 311              		.thumb_func
 312              		.type	sdc_lld_stop, %function
 313              	sdc_lld_stop:
 314              	.LFB126:
 315              		.loc 1 362 0
 316              		.cfi_startproc
 317              		@ args = 0, pretend = 0, frame = 0
 318              		@ frame_needed = 0, uses_anonymous_args = 0
 319              	.LVL26:
 320              		.loc 1 364 0
 321 0000 0379     		ldrb	r3, [r0, #4]	@ zero_extendqisi2
 322 0002 012B     		cmp	r3, #1
 323 0004 13D0     		beq	.L56
 324              		.loc 1 367 0
 325 0006 0A4B     		ldr	r3, .L57
 326              		.loc 1 362 0
 327 0008 10B5     		push	{r4, lr}
 328              		.cfi_def_cfa_offset 8
 329              		.cfi_offset 4, -8
 330              		.cfi_offset 14, -4
 331              		.loc 1 367 0
 332 000a 0022     		movs	r2, #0
 333 000c 0446     		mov	r4, r0
 334 000e 1A60     		str	r2, [r3]
 335              		.loc 1 373 0
 336 0010 3120     		movs	r0, #49
 337              	.LVL27:
 338              		.loc 1 368 0
 339 0012 5A60     		str	r2, [r3, #4]
ARM GAS  /tmp/cciw5GO7.s 			page 7


 340              		.loc 1 369 0
 341 0014 DA62     		str	r2, [r3, #44]
 342              		.loc 1 370 0
 343 0016 5A62     		str	r2, [r3, #36]
 344              		.loc 1 373 0
 345 0018 FFF7FEFF 		bl	nvicDisableVector
 346              	.LVL28:
 347              		.loc 1 374 0
 348 001c 606C     		ldr	r0, [r4, #68]
 349 001e FFF7FEFF 		bl	dmaStreamRelease
 350              	.LVL29:
 351              		.loc 1 375 0
 352 0022 044A     		ldr	r2, .L57+4
 353 0024 536C     		ldr	r3, [r2, #68]
 354 0026 23F40063 		bic	r3, r3, #2048
 355 002a 5364     		str	r3, [r2, #68]
 356 002c 10BD     		pop	{r4, pc}
 357              	.LVL30:
 358              	.L56:
 359              		.cfi_def_cfa_offset 0
 360              		.cfi_restore 4
 361              		.cfi_restore 14
 362 002e 7047     		bx	lr
 363              	.L58:
 364              		.align	2
 365              	.L57:
 366 0030 002C0140 		.word	1073818624
 367 0034 00380240 		.word	1073887232
 368              		.cfi_endproc
 369              	.LFE126:
 370              		.size	sdc_lld_stop, .-sdc_lld_stop
 371 0038 AFF30080 		.section	.text.sdc_lld_start_clk,"ax",%progbits
 371      AFF30080 
 372              		.align	2
 373              		.p2align 4,,15
 374              		.global	sdc_lld_start_clk
 375              		.thumb
 376              		.thumb_func
 377              		.type	sdc_lld_start_clk, %function
 378              	sdc_lld_start_clk:
 379              	.LFB127:
 380              		.loc 1 386 0
 381              		.cfi_startproc
 382              		@ args = 0, pretend = 0, frame = 0
 383              		@ frame_needed = 0, uses_anonymous_args = 0
 384              		@ link register save eliminated.
 385              	.LVL31:
 386              		.loc 1 391 0
 387 0000 064B     		ldr	r3, .L60
 388 0002 7822     		movs	r2, #120
 389 0004 5A60     		str	r2, [r3, #4]
 390              		.loc 1 392 0
 391 0006 1A68     		ldr	r2, [r3]
 392 0008 42F00302 		orr	r2, r2, #3
 393 000c 1A60     		str	r2, [r3]
 394              		.loc 1 393 0
 395 000e 5A68     		ldr	r2, [r3, #4]
ARM GAS  /tmp/cciw5GO7.s 			page 8


 396 0010 42F48072 		orr	r2, r2, #256
 397 0014 5A60     		str	r2, [r3, #4]
 398              		.loc 1 396 0
 399 0016 0A20     		movs	r0, #10
 400              	.LVL32:
 401 0018 FFF7FEBF 		b	chThdSleep
 402              	.LVL33:
 403              	.L61:
 404              		.align	2
 405              	.L60:
 406 001c 002C0140 		.word	1073818624
 407              		.cfi_endproc
 408              	.LFE127:
 409              		.size	sdc_lld_start_clk, .-sdc_lld_start_clk
 410              		.section	.text.sdc_lld_set_data_clk,"ax",%progbits
 411              		.align	2
 412              		.p2align 4,,15
 413              		.global	sdc_lld_set_data_clk
 414              		.thumb
 415              		.thumb_func
 416              		.type	sdc_lld_set_data_clk, %function
 417              	sdc_lld_set_data_clk:
 418              	.LFB128:
 419              		.loc 1 406 0
 420              		.cfi_startproc
 421              		@ args = 0, pretend = 0, frame = 0
 422              		@ frame_needed = 0, uses_anonymous_args = 0
 423              		@ link register save eliminated.
 424              	.LVL34:
 425              		.loc 1 410 0
 426 0000 024A     		ldr	r2, .L63
 427 0002 5368     		ldr	r3, [r2, #4]
 428 0004 23F0FF03 		bic	r3, r3, #255
 429 0008 5360     		str	r3, [r2, #4]
 430 000a 7047     		bx	lr
 431              	.L64:
 432              		.align	2
 433              	.L63:
 434 000c 002C0140 		.word	1073818624
 435              		.cfi_endproc
 436              	.LFE128:
 437              		.size	sdc_lld_set_data_clk, .-sdc_lld_set_data_clk
 438              		.section	.text.sdc_lld_stop_clk,"ax",%progbits
 439              		.align	2
 440              		.p2align 4,,15
 441              		.global	sdc_lld_stop_clk
 442              		.thumb
 443              		.thumb_func
 444              		.type	sdc_lld_stop_clk, %function
 445              	sdc_lld_stop_clk:
 446              	.LFB129:
 447              		.loc 1 420 0
 448              		.cfi_startproc
 449              		@ args = 0, pretend = 0, frame = 0
 450              		@ frame_needed = 0, uses_anonymous_args = 0
 451              		@ link register save eliminated.
 452              	.LVL35:
ARM GAS  /tmp/cciw5GO7.s 			page 9


 453              		.loc 1 424 0
 454 0000 024B     		ldr	r3, .L66
 455 0002 0022     		movs	r2, #0
 456 0004 5A60     		str	r2, [r3, #4]
 457              		.loc 1 425 0
 458 0006 1A60     		str	r2, [r3]
 459 0008 7047     		bx	lr
 460              	.L67:
 461 000a 00BF     		.align	2
 462              	.L66:
 463 000c 002C0140 		.word	1073818624
 464              		.cfi_endproc
 465              	.LFE129:
 466              		.size	sdc_lld_stop_clk, .-sdc_lld_stop_clk
 467              		.section	.text.sdc_lld_set_bus_mode,"ax",%progbits
 468              		.align	2
 469              		.p2align 4,,15
 470              		.global	sdc_lld_set_bus_mode
 471              		.thumb
 472              		.thumb_func
 473              		.type	sdc_lld_set_bus_mode, %function
 474              	sdc_lld_set_bus_mode:
 475              	.LFB130:
 476              		.loc 1 436 0
 477              		.cfi_startproc
 478              		@ args = 0, pretend = 0, frame = 0
 479              		@ frame_needed = 0, uses_anonymous_args = 0
 480              		@ link register save eliminated.
 481              	.LVL36:
 482              		.loc 1 437 0
 483 0000 084A     		ldr	r2, .L75
 484 0002 5368     		ldr	r3, [r2, #4]
 485              		.loc 1 441 0
 486 0004 0129     		cmp	r1, #1
 487              		.loc 1 437 0
 488 0006 23F4C053 		bic	r3, r3, #6144
 489              	.LVL37:
 490              		.loc 1 441 0
 491 000a 07D0     		beq	.L70
 492 000c 03D3     		bcc	.L73
 493 000e 0229     		cmp	r1, #2
 494 0010 03D1     		bne	.L74
 495              		.loc 1 449 0
 496 0012 43F48053 		orr	r3, r3, #4096
 497              	.LVL38:
 498              	.L73:
 499 0016 5360     		str	r3, [r2, #4]
 500 0018 7047     		bx	lr
 501              	.LVL39:
 502              	.L74:
 503 001a 7047     		bx	lr
 504              	.L70:
 505              		.loc 1 446 0
 506 001c 43F40063 		orr	r3, r3, #2048
 507              	.LVL40:
 508 0020 5360     		str	r3, [r2, #4]
 509              		.loc 1 447 0
ARM GAS  /tmp/cciw5GO7.s 			page 10


 510 0022 7047     		bx	lr
 511              	.L76:
 512              		.align	2
 513              	.L75:
 514 0024 002C0140 		.word	1073818624
 515              		.cfi_endproc
 516              	.LFE130:
 517              		.size	sdc_lld_set_bus_mode, .-sdc_lld_set_bus_mode
 518 0028 AFF30080 		.section	.text.sdc_lld_send_cmd_none,"ax",%progbits
 518      AFF30080 
 519              		.align	2
 520              		.p2align 4,,15
 521              		.global	sdc_lld_send_cmd_none
 522              		.thumb
 523              		.thumb_func
 524              		.type	sdc_lld_send_cmd_none, %function
 525              	sdc_lld_send_cmd_none:
 526              	.LFB131:
 527              		.loc 1 463 0
 528              		.cfi_startproc
 529              		@ args = 0, pretend = 0, frame = 0
 530              		@ frame_needed = 0, uses_anonymous_args = 0
 531              		@ link register save eliminated.
 532              	.LVL41:
 533              		.loc 1 467 0
 534 0000 064B     		ldr	r3, .L81
 535              		.loc 1 468 0
 536 0002 41F48061 		orr	r1, r1, #1024
 537              	.LVL42:
 538              		.loc 1 467 0
 539 0006 9A60     		str	r2, [r3, #8]
 540              		.loc 1 469 0
 541 0008 1846     		mov	r0, r3
 542              	.LVL43:
 543              		.loc 1 468 0
 544 000a D960     		str	r1, [r3, #12]
 545              	.LVL44:
 546              	.L78:
 547              		.loc 1 469 0 discriminator 1
 548 000c 436B     		ldr	r3, [r0, #52]
 549 000e 034A     		ldr	r2, .L81
 550 0010 1B06     		lsls	r3, r3, #24
 551 0012 FBD5     		bpl	.L78
 552              		.loc 1 471 0
 553 0014 8023     		movs	r3, #128
 554 0016 9363     		str	r3, [r2, #56]
 555 0018 7047     		bx	lr
 556              	.L82:
 557 001a 00BF     		.align	2
 558              	.L81:
 559 001c 002C0140 		.word	1073818624
 560              		.cfi_endproc
 561              	.LFE131:
 562              		.size	sdc_lld_send_cmd_none, .-sdc_lld_send_cmd_none
 563              		.section	.text.sdc_lld_send_cmd_short,"ax",%progbits
 564              		.align	2
 565              		.p2align 4,,15
ARM GAS  /tmp/cciw5GO7.s 			page 11


 566              		.global	sdc_lld_send_cmd_short
 567              		.thumb
 568              		.thumb_func
 569              		.type	sdc_lld_send_cmd_short, %function
 570              	sdc_lld_send_cmd_short:
 571              	.LFB132:
 572              		.loc 1 490 0
 573              		.cfi_startproc
 574              		@ args = 0, pretend = 0, frame = 0
 575              		@ frame_needed = 0, uses_anonymous_args = 0
 576              	.LVL45:
 577 0000 38B5     		push	{r3, r4, r5, lr}
 578              		.cfi_def_cfa_offset 16
 579              		.cfi_offset 3, -16
 580              		.cfi_offset 4, -12
 581              		.cfi_offset 5, -8
 582              		.cfi_offset 14, -4
 583              		.loc 1 495 0
 584 0002 0C4C     		ldr	r4, .L91
 585              		.loc 1 496 0
 586 0004 41F48861 		orr	r1, r1, #1088
 587              	.LVL46:
 588              		.loc 1 495 0
 589 0008 A260     		str	r2, [r4, #8]
 590              		.loc 1 497 0
 591 000a 2546     		mov	r5, r4
 592              		.loc 1 496 0
 593 000c E160     		str	r1, [r4, #12]
 594              	.LVL47:
 595              	.L84:
 596              		.loc 1 497 0 discriminator 1
 597 000e 696B     		ldr	r1, [r5, #52]
 598              	.LVL48:
 599 0010 084A     		ldr	r2, .L91
 600 0012 11F04504 		ands	r4, r1, #69
 601 0016 FAD0     		beq	.L84
 602              		.loc 1 500 0
 603 0018 9463     		str	r4, [r2, #56]
 604              		.loc 1 501 0
 605 001a 11F00404 		ands	r4, r1, #4
 606 001e 03D1     		bne	.L90
 607              		.loc 1 505 0
 608 0020 5269     		ldr	r2, [r2, #20]
 609 0022 1A60     		str	r2, [r3]
 610              		.loc 1 506 0
 611 0024 2046     		mov	r0, r4
 612              	.LVL49:
 613              		.loc 1 507 0
 614 0026 38BD     		pop	{r3, r4, r5, pc}
 615              	.LVL50:
 616              	.L90:
 617              		.loc 1 502 0
 618 0028 3430     		adds	r0, r0, #52
 619              	.LVL51:
 620 002a FFF7FEFF 		bl	sdc_lld_collect_errors.isra.0
 621              	.LVL52:
 622              		.loc 1 503 0
ARM GAS  /tmp/cciw5GO7.s 			page 12


 623 002e 0120     		movs	r0, #1
 624 0030 38BD     		pop	{r3, r4, r5, pc}
 625              	.L92:
 626 0032 00BF     		.align	2
 627              	.L91:
 628 0034 002C0140 		.word	1073818624
 629              		.cfi_endproc
 630              	.LFE132:
 631              		.size	sdc_lld_send_cmd_short, .-sdc_lld_send_cmd_short
 632 0038 AFF30080 		.section	.text.sdc_lld_send_cmd_short_crc,"ax",%progbits
 632      AFF30080 
 633              		.align	2
 634              		.p2align 4,,15
 635              		.global	sdc_lld_send_cmd_short_crc
 636              		.thumb
 637              		.thumb_func
 638              		.type	sdc_lld_send_cmd_short_crc, %function
 639              	sdc_lld_send_cmd_short_crc:
 640              	.LFB133:
 641              		.loc 1 524 0
 642              		.cfi_startproc
 643              		@ args = 0, pretend = 0, frame = 0
 644              		@ frame_needed = 0, uses_anonymous_args = 0
 645              	.LVL53:
 646 0000 38B5     		push	{r3, r4, r5, lr}
 647              		.cfi_def_cfa_offset 16
 648              		.cfi_offset 3, -16
 649              		.cfi_offset 4, -12
 650              		.cfi_offset 5, -8
 651              		.cfi_offset 14, -4
 652              		.loc 1 529 0
 653 0002 0C4C     		ldr	r4, .L101
 654              		.loc 1 530 0
 655 0004 41F48861 		orr	r1, r1, #1088
 656              	.LVL54:
 657              		.loc 1 529 0
 658 0008 A260     		str	r2, [r4, #8]
 659              		.loc 1 531 0
 660 000a 2546     		mov	r5, r4
 661              		.loc 1 530 0
 662 000c E160     		str	r1, [r4, #12]
 663              	.LVL55:
 664              	.L94:
 665              		.loc 1 531 0 discriminator 1
 666 000e 696B     		ldr	r1, [r5, #52]
 667              	.LVL56:
 668 0010 084A     		ldr	r2, .L101
 669 0012 11F04504 		ands	r4, r1, #69
 670 0016 FAD0     		beq	.L94
 671              		.loc 1 534 0
 672 0018 9463     		str	r4, [r2, #56]
 673              		.loc 1 535 0
 674 001a 11F00504 		ands	r4, r1, #5
 675 001e 03D1     		bne	.L100
 676              		.loc 1 539 0
 677 0020 5269     		ldr	r2, [r2, #20]
 678 0022 1A60     		str	r2, [r3]
ARM GAS  /tmp/cciw5GO7.s 			page 13


 679              		.loc 1 540 0
 680 0024 2046     		mov	r0, r4
 681              	.LVL57:
 682              		.loc 1 541 0
 683 0026 38BD     		pop	{r3, r4, r5, pc}
 684              	.LVL58:
 685              	.L100:
 686              		.loc 1 536 0
 687 0028 3430     		adds	r0, r0, #52
 688              	.LVL59:
 689 002a FFF7FEFF 		bl	sdc_lld_collect_errors.isra.0
 690              	.LVL60:
 691              		.loc 1 537 0
 692 002e 0120     		movs	r0, #1
 693 0030 38BD     		pop	{r3, r4, r5, pc}
 694              	.L102:
 695 0032 00BF     		.align	2
 696              	.L101:
 697 0034 002C0140 		.word	1073818624
 698              		.cfi_endproc
 699              	.LFE133:
 700              		.size	sdc_lld_send_cmd_short_crc, .-sdc_lld_send_cmd_short_crc
 701 0038 AFF30080 		.section	.text.sdc_lld_wait_transaction_end,"ax",%progbits
 701      AFF30080 
 702              		.align	2
 703              		.p2align 4,,15
 704              		.thumb
 705              		.thumb_func
 706              		.type	sdc_lld_wait_transaction_end, %function
 707              	sdc_lld_wait_transaction_end:
 708              	.LFB120:
 709              		.loc 1 157 0
 710              		.cfi_startproc
 711              		@ args = 0, pretend = 0, frame = 0
 712              		@ frame_needed = 0, uses_anonymous_args = 0
 713              	.LVL61:
 714 0000 2DE9F041 		push	{r4, r5, r6, r7, r8, lr}
 715              		.cfi_def_cfa_offset 24
 716              		.cfi_offset 4, -24
 717              		.cfi_offset 5, -20
 718              		.cfi_offset 6, -16
 719              		.cfi_offset 7, -12
 720              		.cfi_offset 8, -8
 721              		.cfi_offset 14, -4
 722              	.LBB15:
 723              		.loc 1 161 0
 724 0004 2023     		movs	r3, #32
 725              	.LBE15:
 726              		.loc 1 157 0
 727 0006 0646     		mov	r6, r0
 728 0008 0F46     		mov	r7, r1
 729 000a 9046     		mov	r8, r2
 730              	.LBB16:
 731              		.loc 1 161 0
 732              	@ 161 "../../../os/hal/platforms/STM32/sdc_lld.c" 1
 733 000c 83F31188 		msr     BASEPRI, r3
 734              	@ 0 "" 2
ARM GAS  /tmp/cciw5GO7.s 			page 14


 735              		.thumb
 736              	.LBE16:
 737 0010 FFF7FEFF 		bl	dbg_check_lock
 738              	.LVL62:
 739              		.loc 1 162 0
 740 0014 204B     		ldr	r3, .L121
 741 0016 DB6B     		ldr	r3, [r3, #60]
 742 0018 7BB1     		cbz	r3, .L105
 743              		.loc 1 163 0
 744 001a F36B     		ldr	r3, [r6, #60]
 745 001c 13B1     		cbz	r3, .L106
 746              		.loc 1 163 0 is_stmt 0 discriminator 1
 747 001e 1F48     		ldr	r0, .L121+4
 748 0020 FFF7FEFF 		bl	chDbgPanic
 749              	.LVL63:
 750              	.L106:
 751              		.loc 1 165 0 is_stmt 1
 752 0024 1E4B     		ldr	r3, .L121+8
 753 0026 9B69     		ldr	r3, [r3, #24]
 754 0028 F363     		str	r3, [r6, #60]
 755              		.loc 1 166 0
 756 002a 0220     		movs	r0, #2
 757 002c FFF7FEFF 		bl	chSchGoSleepS
 758              	.LVL64:
 759              		.loc 1 167 0
 760 0030 F36B     		ldr	r3, [r6, #60]
 761 0032 13B1     		cbz	r3, .L105
 762              		.loc 1 167 0 is_stmt 0 discriminator 1
 763 0034 1B48     		ldr	r0, .L121+12
 764 0036 FFF7FEFF 		bl	chDbgPanic
 765              	.LVL65:
 766              	.L105:
 767              		.loc 1 170 0 is_stmt 1
 768 003a 174B     		ldr	r3, .L121
 769 003c 5C6B     		ldr	r4, [r3, #52]
 770 003e 14F48074 		ands	r4, r4, #256
 771 0042 20D0     		beq	.L120
 772 0044 736C     		ldr	r3, [r6, #68]
 773 0046 1D68     		ldr	r5, [r3]
 774              	.L110:
 775              	.LBB17:
 776              	.LBB18:
 777              		.loc 1 177 0
 778 0048 2C68     		ldr	r4, [r5]
 779 004a 14F00104 		ands	r4, r4, #1
 780 004e FBD1     		bne	.L110
 781              		.loc 1 181 0
 782 0050 1D7A     		ldrb	r5, [r3, #8]	@ zero_extendqisi2
 783 0052 5868     		ldr	r0, [r3, #4]
 784              		.loc 1 183 0
 785 0054 104A     		ldr	r2, .L121
 786 0056 1449     		ldr	r1, .L121+16
 787              		.loc 1 181 0
 788 0058 3D23     		movs	r3, #61
 789 005a AB40     		lsls	r3, r3, r5
 790 005c 0360     		str	r3, [r0]
 791              		.loc 1 183 0
ARM GAS  /tmp/cciw5GO7.s 			page 15


 792 005e 9163     		str	r1, [r2, #56]
 793              		.loc 1 184 0
 794 0060 D462     		str	r4, [r2, #44]
 795              		.loc 1 185 0
 796 0062 FFF7FEFF 		bl	dbg_check_unlock
 797              	.LVL66:
 798              	.LBB19:
 799 0066 2346     		mov	r3, r4
 800              	@ 185 "../../../os/hal/platforms/STM32/sdc_lld.c" 1
 801 0068 83F31188 		msr     BASEPRI, r3
 802              	@ 0 "" 2
 803              		.thumb
 804              	.LBE19:
 805              		.loc 1 201 0
 806 006c 012F     		cmp	r7, #1
 807 006e 07D9     		bls	.L111
 808              		.loc 1 202 0
 809 0070 3046     		mov	r0, r6
 810 0072 2246     		mov	r2, r4
 811 0074 4346     		mov	r3, r8
 812 0076 0C21     		movs	r1, #12
 813              	.LBE18:
 814              	.LBE17:
 815              		.loc 1 205 0
 816 0078 BDE8F041 		pop	{r4, r5, r6, r7, r8, lr}
 817              		.cfi_remember_state
 818              		.cfi_restore 14
 819              		.cfi_restore 8
 820              		.cfi_restore 7
 821              		.cfi_restore 6
 822              		.cfi_restore 5
 823              		.cfi_restore 4
 824              		.cfi_def_cfa_offset 0
 825              	.LVL67:
 826              	.LBB21:
 827              	.LBB20:
 828              		.loc 1 202 0
 829 007c FFF7FEBF 		b	sdc_lld_send_cmd_short_crc
 830              	.LVL68:
 831              	.L111:
 832              		.cfi_restore_state
 833              		.loc 1 204 0
 834 0080 2046     		mov	r0, r4
 835              	.LBE20:
 836              	.LBE21:
 837              		.loc 1 205 0
 838 0082 BDE8F081 		pop	{r4, r5, r6, r7, r8, pc}
 839              	.LVL69:
 840              	.L120:
 841              		.loc 1 171 0
 842 0086 FFF7FEFF 		bl	dbg_check_unlock
 843              	.LVL70:
 844              	.LBB22:
 845 008a 2346     		mov	r3, r4
 846              	@ 171 "../../../os/hal/platforms/STM32/sdc_lld.c" 1
 847 008c 83F31188 		msr     BASEPRI, r3
 848              	@ 0 "" 2
ARM GAS  /tmp/cciw5GO7.s 			page 16


 849              		.thumb
 850              	.LBE22:
 851              		.loc 1 172 0
 852 0090 0120     		movs	r0, #1
 853 0092 BDE8F081 		pop	{r4, r5, r6, r7, r8, pc}
 854              	.LVL71:
 855              	.L122:
 856 0096 00BF     		.align	2
 857              	.L121:
 858 0098 002C0140 		.word	1073818624
 859 009c 14000000 		.word	.LC1
 860 00a0 00000000 		.word	rlist
 861 00a4 3C000000 		.word	.LC2
 862 00a8 FF07C000 		.word	12584959
 863              		.cfi_endproc
 864              	.LFE120:
 865              		.size	sdc_lld_wait_transaction_end, .-sdc_lld_wait_transaction_end
 866 00ac AFF30080 		.section	.text.sdc_lld_error_cleanup,"ax",%progbits
 867              		.align	2
 868              		.p2align 4,,15
 869              		.thumb
 870              		.thumb_func
 871              		.type	sdc_lld_error_cleanup, %function
 872              	sdc_lld_error_cleanup:
 873              	.LFB122:
 874              		.loc 1 247 0
 875              		.cfi_startproc
 876              		@ args = 0, pretend = 0, frame = 0
 877              		@ frame_needed = 0, uses_anonymous_args = 0
 878              	.LVL72:
 879 0000 2DE9F047 		push	{r4, r5, r6, r7, r8, r9, r10, lr}
 880              		.cfi_def_cfa_offset 32
 881              		.cfi_offset 4, -32
 882              		.cfi_offset 5, -28
 883              		.cfi_offset 6, -24
 884              		.cfi_offset 7, -20
 885              		.cfi_offset 8, -16
 886              		.cfi_offset 9, -12
 887              		.cfi_offset 10, -8
 888              		.cfi_offset 14, -4
 889              		.loc 1 250 0
 890 0004 466C     		ldr	r6, [r0, #68]
 891 0006 377A     		ldrb	r7, [r6, #8]	@ zero_extendqisi2
 892 0008 7368     		ldr	r3, [r6, #4]
 893              		.loc 1 251 0
 894 000a 3568     		ldr	r5, [r6]
 895              		.loc 1 247 0
 896 000c 8046     		mov	r8, r0
 897              		.loc 1 250 0
 898 000e 3D24     		movs	r4, #61
 899              		.loc 1 248 0
 900 0010 1448     		ldr	r0, .L128
 901              	.LVL73:
 902              		.loc 1 250 0
 903 0012 BC40     		lsls	r4, r4, r7
 904              		.loc 1 248 0
 905 0014 406B     		ldr	r0, [r0, #52]
ARM GAS  /tmp/cciw5GO7.s 			page 17


 906              	.LVL74:
 907              		.loc 1 250 0
 908 0016 1C60     		str	r4, [r3]
 909              		.loc 1 251 0
 910 0018 2C68     		ldr	r4, [r5]
 911 001a 24F01F04 		bic	r4, r4, #31
 912              		.loc 1 247 0
 913 001e 8946     		mov	r9, r1
 914 0020 1746     		mov	r7, r2
 915              		.loc 1 251 0
 916 0022 2C60     		str	r4, [r5]
 917              	.L124:
 918              		.loc 1 251 0 is_stmt 0 discriminator 2
 919 0024 2C68     		ldr	r4, [r5]
 920 0026 14F00104 		ands	r4, r4, #1
 921 002a FBD1     		bne	.L124
 922              		.loc 1 251 0 discriminator 3
 923 002c 317A     		ldrb	r1, [r6, #8]	@ zero_extendqisi2
 924              	.LVL75:
 925              		.loc 1 252 0 is_stmt 1 discriminator 3
 926 002e 0D4D     		ldr	r5, .L128
 927 0030 0D4A     		ldr	r2, .L128+4
 928              	.LVL76:
 929              		.loc 1 251 0 discriminator 3
 930 0032 3D26     		movs	r6, #61
 931 0034 8E40     		lsls	r6, r6, r1
 932 0036 1E60     		str	r6, [r3]
 933              		.loc 1 255 0 discriminator 3
 934 0038 0146     		mov	r1, r0
 935              		.loc 1 252 0 discriminator 3
 936 003a AA63     		str	r2, [r5, #56]
 937              		.loc 1 255 0 discriminator 3
 938 003c 08F13400 		add	r0, r8, #52
 939              	.LVL77:
 940              		.loc 1 253 0 discriminator 3
 941 0040 EC63     		str	r4, [r5, #60]
 942              		.loc 1 254 0 discriminator 3
 943 0042 EC62     		str	r4, [r5, #44]
 944              		.loc 1 255 0 discriminator 3
 945 0044 FFF7FEFF 		bl	sdc_lld_collect_errors.isra.0
 946              	.LVL78:
 947              		.loc 1 256 0 discriminator 3
 948 0048 B9F1010F 		cmp	r9, #1
 949 004c 07D9     		bls	.L123
 950              	.LVL79:
 951              	.LBB25:
 952              	.LBB26:
 953              		.loc 1 257 0
 954 004e 4046     		mov	r0, r8
 955 0050 2246     		mov	r2, r4
 956 0052 3B46     		mov	r3, r7
 957 0054 0C21     		movs	r1, #12
 958              	.LBE26:
 959              	.LBE25:
 960              		.loc 1 258 0
 961 0056 BDE8F047 		pop	{r4, r5, r6, r7, r8, r9, r10, lr}
 962              		.cfi_remember_state
ARM GAS  /tmp/cciw5GO7.s 			page 18


 963              		.cfi_restore 14
 964              		.cfi_restore 10
 965              		.cfi_restore 9
 966              		.cfi_restore 8
 967              		.cfi_restore 7
 968              		.cfi_restore 6
 969              		.cfi_restore 5
 970              		.cfi_restore 4
 971              		.cfi_def_cfa_offset 0
 972              	.LVL80:
 973              	.LBB28:
 974              	.LBB27:
 975              		.loc 1 257 0
 976 005a FFF7FEBF 		b	sdc_lld_send_cmd_short_crc
 977              	.LVL81:
 978              	.L123:
 979              		.cfi_restore_state
 980 005e BDE8F087 		pop	{r4, r5, r6, r7, r8, r9, r10, pc}
 981              	.LVL82:
 982              	.L129:
 983 0062 00BF     		.align	2
 984              	.L128:
 985 0064 002C0140 		.word	1073818624
 986 0068 FF07C000 		.word	12584959
 987              	.LBE27:
 988              	.LBE28:
 989              		.cfi_endproc
 990              	.LFE122:
 991              		.size	sdc_lld_error_cleanup, .-sdc_lld_error_cleanup
 992 006c AFF30080 		.section	.text.sdc_lld_send_cmd_long_crc,"ax",%progbits
 993              		.align	2
 994              		.p2align 4,,15
 995              		.global	sdc_lld_send_cmd_long_crc
 996              		.thumb
 997              		.thumb_func
 998              		.type	sdc_lld_send_cmd_long_crc, %function
 999              	sdc_lld_send_cmd_long_crc:
 1000              	.LFB134:
 1001              		.loc 1 558 0
 1002              		.cfi_startproc
 1003              		@ args = 0, pretend = 0, frame = 0
 1004              		@ frame_needed = 0, uses_anonymous_args = 0
 1005              	.LVL83:
 1006 0000 38B5     		push	{r3, r4, r5, lr}
 1007              		.cfi_def_cfa_offset 16
 1008              		.cfi_offset 3, -16
 1009              		.cfi_offset 4, -12
 1010              		.cfi_offset 5, -8
 1011              		.cfi_offset 14, -4
 1012              		.loc 1 563 0
 1013 0002 0F4C     		ldr	r4, .L138
 1014              		.loc 1 564 0
 1015 0004 41F49861 		orr	r1, r1, #1216
 1016              	.LVL84:
 1017              		.loc 1 563 0
 1018 0008 A260     		str	r2, [r4, #8]
 1019              		.loc 1 566 0
ARM GAS  /tmp/cciw5GO7.s 			page 19


 1020 000a 2546     		mov	r5, r4
 1021              		.loc 1 564 0
 1022 000c E160     		str	r1, [r4, #12]
 1023              	.LVL85:
 1024              	.L131:
 1025              		.loc 1 566 0 discriminator 1
 1026 000e 696B     		ldr	r1, [r5, #52]
 1027              	.LVL86:
 1028 0010 0B4A     		ldr	r2, .L138
 1029 0012 11F04504 		ands	r4, r1, #69
 1030 0016 FAD0     		beq	.L131
 1031              		.loc 1 569 0
 1032 0018 9463     		str	r4, [r2, #56]
 1033              		.loc 1 570 0
 1034 001a 11F03F04 		ands	r4, r1, #63
 1035 001e 09D1     		bne	.L137
 1036              	.LVL87:
 1037              		.loc 1 575 0
 1038 0020 116A     		ldr	r1, [r2, #32]
 1039              	.LVL88:
 1040 0022 1960     		str	r1, [r3]
 1041              	.LVL89:
 1042              		.loc 1 576 0
 1043 0024 D169     		ldr	r1, [r2, #28]
 1044 0026 5960     		str	r1, [r3, #4]
 1045              	.LVL90:
 1046              		.loc 1 577 0
 1047 0028 9169     		ldr	r1, [r2, #24]
 1048 002a 9960     		str	r1, [r3, #8]
 1049              		.loc 1 578 0
 1050 002c 5269     		ldr	r2, [r2, #20]
 1051 002e DA60     		str	r2, [r3, #12]
 1052              		.loc 1 579 0
 1053 0030 2046     		mov	r0, r4
 1054              	.LVL91:
 1055              		.loc 1 580 0
 1056 0032 38BD     		pop	{r3, r4, r5, pc}
 1057              	.LVL92:
 1058              	.L137:
 1059              		.loc 1 571 0
 1060 0034 3430     		adds	r0, r0, #52
 1061              	.LVL93:
 1062 0036 FFF7FEFF 		bl	sdc_lld_collect_errors.isra.0
 1063              	.LVL94:
 1064              		.loc 1 572 0
 1065 003a 0120     		movs	r0, #1
 1066 003c 38BD     		pop	{r3, r4, r5, pc}
 1067              	.L139:
 1068 003e 00BF     		.align	2
 1069              	.L138:
 1070 0040 002C0140 		.word	1073818624
 1071              		.cfi_endproc
 1072              	.LFE134:
 1073              		.size	sdc_lld_send_cmd_long_crc, .-sdc_lld_send_cmd_long_crc
 1074 0044 AFF30080 		.section	.text.sdc_lld_read_aligned,"ax",%progbits
 1074      AFF30080 
 1074      AFF30080 
ARM GAS  /tmp/cciw5GO7.s 			page 20


 1075              		.align	2
 1076              		.p2align 4,,15
 1077              		.global	sdc_lld_read_aligned
 1078              		.thumb
 1079              		.thumb_func
 1080              		.type	sdc_lld_read_aligned, %function
 1081              	sdc_lld_read_aligned:
 1082              	.LFB135:
 1083              		.loc 1 597 0
 1084              		.cfi_startproc
 1085              		@ args = 0, pretend = 0, frame = 8
 1086              		@ frame_needed = 0, uses_anonymous_args = 0
 1087              	.LVL95:
 1088 0000 2DE9F041 		push	{r4, r5, r6, r7, r8, lr}
 1089              		.cfi_def_cfa_offset 24
 1090              		.cfi_offset 4, -24
 1091              		.cfi_offset 5, -20
 1092              		.cfi_offset 6, -16
 1093              		.cfi_offset 7, -12
 1094              		.cfi_offset 8, -8
 1095              		.cfi_offset 14, -4
 1096              		.loc 1 600 0
 1097 0004 B3F5004F 		cmp	r3, #32768
 1098              		.loc 1 597 0
 1099 0008 82B0     		sub	sp, sp, #8
 1100              		.cfi_def_cfa_offset 32
 1101              		.loc 1 597 0
 1102 000a 1E46     		mov	r6, r3
 1103 000c 0446     		mov	r4, r0
 1104 000e 0F46     		mov	r7, r1
 1105 0010 9046     		mov	r8, r2
 1106              		.loc 1 600 0
 1107 0012 43D2     		bcs	.L152
 1108              	.LVL96:
 1109              	.L141:
 1110              		.loc 1 602 0
 1111 0014 264D     		ldr	r5, .L154
 1112 0016 274B     		ldr	r3, .L154+4
 1113 0018 6B62     		str	r3, [r5, #36]
 1114              		.loc 1 605 0
 1115 001a 2046     		mov	r0, r4
 1116 001c FFF7FEFF 		bl	_sdc_wait_for_transfer_state
 1117              	.LVL97:
 1118 0020 10B1     		cbz	r0, .L153
 1119              	.LVL98:
 1120              	.L149:
 1121              		.loc 1 642 0
 1122 0022 02B0     		add	sp, sp, #8
 1123              		.cfi_remember_state
 1124              		.cfi_def_cfa_offset 24
 1125              		@ sp needed
 1126 0024 BDE8F081 		pop	{r4, r5, r6, r7, r8, pc}
 1127              	.LVL99:
 1128              	.L153:
 1129              		.cfi_restore_state
 1130              	.LBB33:
 1131              	.LBB34:
ARM GAS  /tmp/cciw5GO7.s 			page 21


 1132              		.loc 1 609 0
 1133 0028 636C     		ldr	r3, [r4, #68]
 1134              		.loc 1 612 0
 1135 002a 226C     		ldr	r2, [r4, #64]
 1136              		.loc 1 609 0
 1137 002c 1B68     		ldr	r3, [r3]
 1138              		.loc 1 616 0
 1139 002e DFF890C0 		ldr	ip, .L154+16
 1140              		.loc 1 609 0
 1141 0032 C3F80C80 		str	r8, [r3, #12]
 1142              		.loc 1 610 0
 1143 0036 7102     		lsls	r1, r6, #9
 1144 0038 8808     		lsrs	r0, r1, #2
 1145 003a 5860     		str	r0, [r3, #4]
 1146              		.loc 1 612 0
 1147 003c 1A60     		str	r2, [r3]
 1148              		.loc 1 613 0
 1149 003e 1A68     		ldr	r2, [r3]
 1150              		.loc 1 625 0
 1151 0040 9B20     		movs	r0, #155
 1152              		.loc 1 613 0
 1153 0042 42F00102 		orr	r2, r2, #1
 1154              		.loc 1 617 0
 1155 0046 40F22A3E 		movw	lr, #810
 1156              		.loc 1 613 0
 1157 004a 1A60     		str	r2, [r3]
 1158              		.loc 1 616 0
 1159 004c C5F838C0 		str	ip, [r5, #56]
 1160              		.loc 1 617 0
 1161 0050 C5F83CE0 		str	lr, [r5, #60]
 1162              		.loc 1 622 0
 1163 0054 A962     		str	r1, [r5, #40]
 1164              		.loc 1 625 0
 1165 0056 E862     		str	r0, [r5, #44]
 1166              	.LVL100:
 1167              	.LBB35:
 1168              	.LBB36:
 1169              		.loc 1 88 0
 1170 0058 236B     		ldr	r3, [r4, #48]
 1171 005a DB06     		lsls	r3, r3, #27
 1172              		.loc 1 89 0
 1173 005c 58BF     		it	pl
 1174 005e 7F02     		lslpl	r7, r7, #9
 1175              	.LVL101:
 1176              		.loc 1 93 0
 1177 0060 01AD     		add	r5, sp, #4
 1178              	.LVL102:
 1179              		.loc 1 91 0
 1180 0062 012E     		cmp	r6, #1
 1181              		.loc 1 93 0
 1182 0064 3A46     		mov	r2, r7
 1183 0066 2B46     		mov	r3, r5
 1184 0068 2046     		mov	r0, r4
 1185              		.loc 1 91 0
 1186 006a 1BD9     		bls	.L144
 1187              	.LVL103:
 1188              		.loc 1 93 0
ARM GAS  /tmp/cciw5GO7.s 			page 22


 1189 006c 1221     		movs	r1, #18
 1190 006e FFF7FEFF 		bl	sdc_lld_send_cmd_short_crc
 1191              	.LVL104:
 1192 0072 50B9     		cbnz	r0, .L147
 1193              	.L151:
 1194              		.loc 1 100 0
 1195 0074 019A     		ldr	r2, [sp, #4]
 1196 0076 104B     		ldr	r3, .L154+8
 1197 0078 1340     		ands	r3, r3, r2
 1198 007a 33B9     		cbnz	r3, .L147
 1199              	.LBE36:
 1200              	.LBE35:
 1201              		.loc 1 634 0
 1202 007c 2046     		mov	r0, r4
 1203 007e 3146     		mov	r1, r6
 1204 0080 2A46     		mov	r2, r5
 1205 0082 FFF7FEFF 		bl	sdc_lld_wait_transaction_end
 1206              	.LVL105:
 1207 0086 0028     		cmp	r0, #0
 1208 0088 CBD0     		beq	.L149
 1209              	.L147:
 1210              		.loc 1 640 0
 1211 008a 2046     		mov	r0, r4
 1212 008c 3146     		mov	r1, r6
 1213 008e 2A46     		mov	r2, r5
 1214 0090 FFF7FEFF 		bl	sdc_lld_error_cleanup
 1215              	.LVL106:
 1216              		.loc 1 641 0
 1217 0094 0120     		movs	r0, #1
 1218              	.LBE34:
 1219              	.LBE33:
 1220              		.loc 1 642 0
 1221 0096 02B0     		add	sp, sp, #8
 1222              		.cfi_remember_state
 1223              		.cfi_def_cfa_offset 24
 1224              		@ sp needed
 1225 0098 BDE8F081 		pop	{r4, r5, r6, r7, r8, pc}
 1226              	.LVL107:
 1227              	.L152:
 1228              		.cfi_restore_state
 1229              		.loc 1 600 0 discriminator 1
 1230 009c 0748     		ldr	r0, .L154+12
 1231              	.LVL108:
 1232 009e FFF7FEFF 		bl	chDbgPanic
 1233              	.LVL109:
 1234 00a2 B7E7     		b	.L141
 1235              	.LVL110:
 1236              	.L144:
 1237              	.LBB40:
 1238              	.LBB39:
 1239              	.LBB38:
 1240              	.LBB37:
 1241              		.loc 1 99 0
 1242 00a4 1121     		movs	r1, #17
 1243 00a6 FFF7FEFF 		bl	sdc_lld_send_cmd_short_crc
 1244              	.LVL111:
 1245 00aa 0028     		cmp	r0, #0
ARM GAS  /tmp/cciw5GO7.s 			page 23


 1246 00ac E2D0     		beq	.L151
 1247 00ae ECE7     		b	.L147
 1248              	.L155:
 1249              		.align	2
 1250              	.L154:
 1251 00b0 002C0140 		.word	1073818624
 1252 00b4 C0D40100 		.word	120000
 1253 00b8 08E0FFFD 		.word	-33562616
 1254 00bc 64000000 		.word	.LC3
 1255 00c0 FF07C000 		.word	12584959
 1256              	.LBE37:
 1257              	.LBE38:
 1258              	.LBE39:
 1259              	.LBE40:
 1260              		.cfi_endproc
 1261              	.LFE135:
 1262              		.size	sdc_lld_read_aligned, .-sdc_lld_read_aligned
 1263 00c4 AFF30080 		.section	.text.sdc_lld_write_aligned,"ax",%progbits
 1263      AFF30080 
 1263      AFF30080 
 1264              		.align	2
 1265              		.p2align 4,,15
 1266              		.global	sdc_lld_write_aligned
 1267              		.thumb
 1268              		.thumb_func
 1269              		.type	sdc_lld_write_aligned, %function
 1270              	sdc_lld_write_aligned:
 1271              	.LFB136:
 1272              		.loc 1 659 0
 1273              		.cfi_startproc
 1274              		@ args = 0, pretend = 0, frame = 8
 1275              		@ frame_needed = 0, uses_anonymous_args = 0
 1276              	.LVL112:
 1277 0000 2DE9F041 		push	{r4, r5, r6, r7, r8, lr}
 1278              		.cfi_def_cfa_offset 24
 1279              		.cfi_offset 4, -24
 1280              		.cfi_offset 5, -20
 1281              		.cfi_offset 6, -16
 1282              		.cfi_offset 7, -12
 1283              		.cfi_offset 8, -8
 1284              		.cfi_offset 14, -4
 1285              		.loc 1 662 0
 1286 0004 B3F5004F 		cmp	r3, #32768
 1287              		.loc 1 659 0
 1288 0008 82B0     		sub	sp, sp, #8
 1289              		.cfi_def_cfa_offset 32
 1290              		.loc 1 659 0
 1291 000a 1D46     		mov	r5, r3
 1292 000c 0446     		mov	r4, r0
 1293 000e 0F46     		mov	r7, r1
 1294 0010 9046     		mov	r8, r2
 1295              		.loc 1 662 0
 1296 0012 45D2     		bcs	.L168
 1297              	.LVL113:
 1298              	.L157:
 1299              		.loc 1 664 0
 1300 0014 274E     		ldr	r6, .L170
ARM GAS  /tmp/cciw5GO7.s 			page 24


 1301 0016 284B     		ldr	r3, .L170+4
 1302 0018 7362     		str	r3, [r6, #36]
 1303              		.loc 1 667 0
 1304 001a 2046     		mov	r0, r4
 1305 001c FFF7FEFF 		bl	_sdc_wait_for_transfer_state
 1306              	.LVL114:
 1307 0020 10B1     		cbz	r0, .L169
 1308              	.LVL115:
 1309              	.L165:
 1310              		.loc 1 703 0
 1311 0022 02B0     		add	sp, sp, #8
 1312              		.cfi_remember_state
 1313              		.cfi_def_cfa_offset 24
 1314              		@ sp needed
 1315 0024 BDE8F081 		pop	{r4, r5, r6, r7, r8, pc}
 1316              	.LVL116:
 1317              	.L169:
 1318              		.cfi_restore_state
 1319              	.LBB45:
 1320              	.LBB46:
 1321              		.loc 1 671 0
 1322 0028 636C     		ldr	r3, [r4, #68]
 1323              		.loc 1 674 0
 1324 002a 226C     		ldr	r2, [r4, #64]
 1325              		.loc 1 671 0
 1326 002c 1B68     		ldr	r3, [r3]
 1327              		.loc 1 678 0
 1328 002e DFF894E0 		ldr	lr, .L170+16
 1329              		.loc 1 671 0
 1330 0032 C3F80C80 		str	r8, [r3, #12]
 1331              		.loc 1 672 0
 1332 0036 6902     		lsls	r1, r5, #9
 1333 0038 8808     		lsrs	r0, r1, #2
 1334              		.loc 1 674 0
 1335 003a 42F04002 		orr	r2, r2, #64
 1336              		.loc 1 672 0
 1337 003e 5860     		str	r0, [r3, #4]
 1338              		.loc 1 674 0
 1339 0040 1A60     		str	r2, [r3]
 1340              		.loc 1 675 0
 1341 0042 1A68     		ldr	r2, [r3]
 1342              		.loc 1 679 0
 1343 0044 40F21A30 		movw	r0, #794
 1344              		.loc 1 675 0
 1345 0048 42F00102 		orr	r2, r2, #1
 1346 004c 1A60     		str	r2, [r3]
 1347              		.loc 1 678 0
 1348 004e C6F838E0 		str	lr, [r6, #56]
 1349              		.loc 1 679 0
 1350 0052 F063     		str	r0, [r6, #60]
 1351              		.loc 1 684 0
 1352 0054 B162     		str	r1, [r6, #40]
 1353              	.LVL117:
 1354              	.LBB47:
 1355              	.LBB48:
 1356              		.loc 1 126 0
 1357 0056 236B     		ldr	r3, [r4, #48]
ARM GAS  /tmp/cciw5GO7.s 			page 25


 1358 0058 DB06     		lsls	r3, r3, #27
 1359              		.loc 1 127 0
 1360 005a 58BF     		it	pl
 1361 005c 7F02     		lslpl	r7, r7, #9
 1362              	.LVL118:
 1363              		.loc 1 131 0
 1364 005e 01AE     		add	r6, sp, #4
 1365              	.LVL119:
 1366              		.loc 1 129 0
 1367 0060 012D     		cmp	r5, #1
 1368              		.loc 1 131 0
 1369 0062 3A46     		mov	r2, r7
 1370 0064 3346     		mov	r3, r6
 1371 0066 2046     		mov	r0, r4
 1372              		.loc 1 129 0
 1373 0068 1ED9     		bls	.L160
 1374              	.LVL120:
 1375              		.loc 1 131 0
 1376 006a 1921     		movs	r1, #25
 1377 006c FFF7FEFF 		bl	sdc_lld_send_cmd_short_crc
 1378              	.LVL121:
 1379 0070 68B9     		cbnz	r0, .L163
 1380              	.L167:
 1381              		.loc 1 138 0
 1382 0072 019A     		ldr	r2, [sp, #4]
 1383 0074 114B     		ldr	r3, .L170+8
 1384 0076 1340     		ands	r3, r3, r2
 1385 0078 4BB9     		cbnz	r3, .L163
 1386              	.LBE48:
 1387              	.LBE47:
 1388              		.loc 1 691 0
 1389 007a 0E4B     		ldr	r3, .L170
 1390 007c 9922     		movs	r2, #153
 1391 007e DA62     		str	r2, [r3, #44]
 1392              		.loc 1 695 0
 1393 0080 2046     		mov	r0, r4
 1394 0082 2946     		mov	r1, r5
 1395 0084 3246     		mov	r2, r6
 1396 0086 FFF7FEFF 		bl	sdc_lld_wait_transaction_end
 1397              	.LVL122:
 1398 008a 0028     		cmp	r0, #0
 1399 008c C9D0     		beq	.L165
 1400              	.L163:
 1401              		.loc 1 701 0
 1402 008e 2046     		mov	r0, r4
 1403 0090 2946     		mov	r1, r5
 1404 0092 3246     		mov	r2, r6
 1405 0094 FFF7FEFF 		bl	sdc_lld_error_cleanup
 1406              	.LVL123:
 1407              		.loc 1 702 0
 1408 0098 0120     		movs	r0, #1
 1409              	.LBE46:
 1410              	.LBE45:
 1411              		.loc 1 703 0
 1412 009a 02B0     		add	sp, sp, #8
 1413              		.cfi_remember_state
 1414              		.cfi_def_cfa_offset 24
ARM GAS  /tmp/cciw5GO7.s 			page 26


 1415              		@ sp needed
 1416 009c BDE8F081 		pop	{r4, r5, r6, r7, r8, pc}
 1417              	.LVL124:
 1418              	.L168:
 1419              		.cfi_restore_state
 1420              		.loc 1 662 0 discriminator 1
 1421 00a0 0748     		ldr	r0, .L170+12
 1422              	.LVL125:
 1423 00a2 FFF7FEFF 		bl	chDbgPanic
 1424              	.LVL126:
 1425 00a6 B5E7     		b	.L157
 1426              	.LVL127:
 1427              	.L160:
 1428              	.LBB52:
 1429              	.LBB51:
 1430              	.LBB50:
 1431              	.LBB49:
 1432              		.loc 1 137 0
 1433 00a8 1821     		movs	r1, #24
 1434 00aa FFF7FEFF 		bl	sdc_lld_send_cmd_short_crc
 1435              	.LVL128:
 1436 00ae 0028     		cmp	r0, #0
 1437 00b0 DFD0     		beq	.L167
 1438 00b2 ECE7     		b	.L163
 1439              	.L171:
 1440              		.align	2
 1441              	.L170:
 1442 00b4 002C0140 		.word	1073818624
 1443 00b8 808D5B00 		.word	6000000
 1444 00bc 08E0FFFD 		.word	-33562616
 1445 00c0 64000000 		.word	.LC3
 1446 00c4 FF07C000 		.word	12584959
 1447              	.LBE49:
 1448              	.LBE50:
 1449              	.LBE51:
 1450              	.LBE52:
 1451              		.cfi_endproc
 1452              	.LFE136:
 1453              		.size	sdc_lld_write_aligned, .-sdc_lld_write_aligned
 1454 00c8 AFF30080 		.section	.text.sdc_lld_read,"ax",%progbits
 1454      AFF30080 
 1455              		.align	2
 1456              		.p2align 4,,15
 1457              		.global	sdc_lld_read
 1458              		.thumb
 1459              		.thumb_func
 1460              		.type	sdc_lld_read, %function
 1461              	sdc_lld_read:
 1462              	.LFB137:
 1463              		.loc 1 720 0
 1464              		.cfi_startproc
 1465              		@ args = 0, pretend = 0, frame = 0
 1466              		@ frame_needed = 0, uses_anonymous_args = 0
 1467              	.LVL129:
 1468 0000 2DE9F041 		push	{r4, r5, r6, r7, r8, lr}
 1469              		.cfi_def_cfa_offset 24
 1470              		.cfi_offset 4, -24
ARM GAS  /tmp/cciw5GO7.s 			page 27


 1471              		.cfi_offset 5, -20
 1472              		.cfi_offset 6, -16
 1473              		.cfi_offset 7, -12
 1474              		.cfi_offset 8, -8
 1475              		.cfi_offset 14, -4
 1476              		.loc 1 723 0
 1477 0004 9407     		lsls	r4, r2, #30
 1478              		.loc 1 720 0
 1479 0006 1546     		mov	r5, r2
 1480              		.loc 1 723 0
 1481 0008 1DD0     		beq	.L173
 1482              	.LVL130:
 1483 000a 1E46     		mov	r6, r3
 1484              	.LBB53:
 1485              		.loc 1 725 0 discriminator 1
 1486 000c C3B1     		cbz	r3, .L177
 1487 000e 0746     		mov	r7, r0
 1488 0010 0C46     		mov	r4, r1
 1489 0012 0E44     		add	r6, r6, r1
 1490 0014 06E0     		b	.L176
 1491              	.LVL131:
 1492              	.L180:
 1493              		.loc 1 728 0 discriminator 2
 1494 0016 2846     		mov	r0, r5
 1495 0018 FFF7FEFF 		bl	memcpy
 1496              	.LVL132:
 1497              		.loc 1 725 0 discriminator 2
 1498 001c B442     		cmp	r4, r6
 1499              		.loc 1 729 0 discriminator 2
 1500 001e 05F50075 		add	r5, r5, #512
 1501              	.LVL133:
 1502              		.loc 1 725 0 discriminator 2
 1503 0022 0DD0     		beq	.L177
 1504              	.LVL134:
 1505              	.L176:
 1506              		.loc 1 726 0
 1507 0024 2146     		mov	r1, r4
 1508 0026 0A4A     		ldr	r2, .L181
 1509 0028 3846     		mov	r0, r7
 1510 002a 0123     		movs	r3, #1
 1511 002c FFF7FEFF 		bl	sdc_lld_read_aligned
 1512              	.LVL135:
 1513              		.loc 1 730 0
 1514 0030 0134     		adds	r4, r4, #1
 1515              	.LVL136:
 1516              		.loc 1 728 0
 1517 0032 0749     		ldr	r1, .L181
 1518 0034 4FF40072 		mov	r2, #512
 1519              		.loc 1 726 0
 1520 0038 0028     		cmp	r0, #0
 1521 003a ECD0     		beq	.L180
 1522              	.LBE53:
 1523              		.loc 1 736 0
 1524 003c BDE8F081 		pop	{r4, r5, r6, r7, r8, pc}
 1525              	.LVL137:
 1526              	.L177:
 1527              	.LBB54:
ARM GAS  /tmp/cciw5GO7.s 			page 28


 1528              		.loc 1 732 0
 1529 0040 0020     		movs	r0, #0
 1530 0042 BDE8F081 		pop	{r4, r5, r6, r7, r8, pc}
 1531              	.LVL138:
 1532              	.L173:
 1533              	.LBE54:
 1534              		.loc 1 736 0
 1535 0046 BDE8F041 		pop	{r4, r5, r6, r7, r8, lr}
 1536              		.cfi_restore 14
 1537              		.cfi_restore 8
 1538              		.cfi_restore 7
 1539              		.cfi_restore 6
 1540              		.cfi_restore 5
 1541              		.cfi_restore 4
 1542              		.cfi_def_cfa_offset 0
 1543              		.loc 1 735 0
 1544 004a FFF7FEBF 		b	sdc_lld_read_aligned
 1545              	.LVL139:
 1546              	.L182:
 1547 004e 00BF     		.align	2
 1548              	.L181:
 1549 0050 00000000 		.word	.LANCHOR1
 1550              		.cfi_endproc
 1551              	.LFE137:
 1552              		.size	sdc_lld_read, .-sdc_lld_read
 1553              		.section	.text.sdc_lld_write,"ax",%progbits
 1554              		.align	2
 1555              		.p2align 4,,15
 1556              		.global	sdc_lld_write
 1557              		.thumb
 1558              		.thumb_func
 1559              		.type	sdc_lld_write, %function
 1560              	sdc_lld_write:
 1561              	.LFB138:
 1562              		.loc 1 753 0
 1563              		.cfi_startproc
 1564              		@ args = 0, pretend = 0, frame = 0
 1565              		@ frame_needed = 0, uses_anonymous_args = 0
 1566              	.LVL140:
 1567 0000 2DE9F041 		push	{r4, r5, r6, r7, r8, lr}
 1568              		.cfi_def_cfa_offset 24
 1569              		.cfi_offset 4, -24
 1570              		.cfi_offset 5, -20
 1571              		.cfi_offset 6, -16
 1572              		.cfi_offset 7, -12
 1573              		.cfi_offset 8, -8
 1574              		.cfi_offset 14, -4
 1575              		.loc 1 756 0
 1576 0004 9407     		lsls	r4, r2, #30
 1577              		.loc 1 753 0
 1578 0006 1546     		mov	r5, r2
 1579              		.loc 1 756 0
 1580 0008 1DD0     		beq	.L184
 1581              	.LVL141:
 1582 000a 1E46     		mov	r6, r3
 1583              	.LBB55:
 1584              		.loc 1 758 0 discriminator 1
ARM GAS  /tmp/cciw5GO7.s 			page 29


 1585 000c C3B1     		cbz	r3, .L188
 1586 000e 0746     		mov	r7, r0
 1587 0010 0C46     		mov	r4, r1
 1588 0012 0E44     		add	r6, r6, r1
 1589 0014 01E0     		b	.L187
 1590              	.LVL142:
 1591              	.L191:
 1592              		.loc 1 758 0 is_stmt 0 discriminator 2
 1593 0016 B442     		cmp	r4, r6
 1594 0018 12D0     		beq	.L188
 1595              	.LVL143:
 1596              	.L187:
 1597              		.loc 1 759 0 is_stmt 1
 1598 001a 2946     		mov	r1, r5
 1599 001c 4FF40072 		mov	r2, #512
 1600 0020 0B48     		ldr	r0, .L192
 1601 0022 FFF7FEFF 		bl	memcpy
 1602              	.LVL144:
 1603              		.loc 1 761 0
 1604 0026 2146     		mov	r1, r4
 1605 0028 3846     		mov	r0, r7
 1606 002a 094A     		ldr	r2, .L192
 1607 002c 0123     		movs	r3, #1
 1608 002e FFF7FEFF 		bl	sdc_lld_write_aligned
 1609              	.LVL145:
 1610              		.loc 1 763 0
 1611 0032 0134     		adds	r4, r4, #1
 1612              	.LVL146:
 1613              		.loc 1 760 0
 1614 0034 05F50075 		add	r5, r5, #512
 1615              	.LVL147:
 1616              		.loc 1 761 0
 1617 0038 0028     		cmp	r0, #0
 1618 003a ECD0     		beq	.L191
 1619              	.LBE55:
 1620              		.loc 1 769 0
 1621 003c BDE8F081 		pop	{r4, r5, r6, r7, r8, pc}
 1622              	.LVL148:
 1623              	.L188:
 1624              	.LBB56:
 1625              		.loc 1 765 0
 1626 0040 0020     		movs	r0, #0
 1627 0042 BDE8F081 		pop	{r4, r5, r6, r7, r8, pc}
 1628              	.LVL149:
 1629              	.L184:
 1630              	.LBE56:
 1631              		.loc 1 769 0
 1632 0046 BDE8F041 		pop	{r4, r5, r6, r7, r8, lr}
 1633              		.cfi_restore 14
 1634              		.cfi_restore 8
 1635              		.cfi_restore 7
 1636              		.cfi_restore 6
 1637              		.cfi_restore 5
 1638              		.cfi_restore 4
 1639              		.cfi_def_cfa_offset 0
 1640              		.loc 1 768 0
 1641 004a FFF7FEBF 		b	sdc_lld_write_aligned
ARM GAS  /tmp/cciw5GO7.s 			page 30


 1642              	.LVL150:
 1643              	.L193:
 1644 004e 00BF     		.align	2
 1645              	.L192:
 1646 0050 00000000 		.word	.LANCHOR1
 1647              		.cfi_endproc
 1648              	.LFE138:
 1649              		.size	sdc_lld_write, .-sdc_lld_write
 1650 0054 AFF30080 		.section	.text.sdc_lld_sync,"ax",%progbits
 1650      AFF30080 
 1650      AFF30080 
 1651              		.align	2
 1652              		.p2align 4,,15
 1653              		.global	sdc_lld_sync
 1654              		.thumb
 1655              		.thumb_func
 1656              		.type	sdc_lld_sync, %function
 1657              	sdc_lld_sync:
 1658              	.LFB139:
 1659              		.loc 1 782 0
 1660              		.cfi_startproc
 1661              		@ args = 0, pretend = 0, frame = 0
 1662              		@ frame_needed = 0, uses_anonymous_args = 0
 1663              		@ link register save eliminated.
 1664              	.LVL151:
 1665              		.loc 1 787 0
 1666 0000 0020     		movs	r0, #0
 1667              	.LVL152:
 1668 0002 7047     		bx	lr
 1669              		.cfi_endproc
 1670              	.LFE139:
 1671              		.size	sdc_lld_sync, .-sdc_lld_sync
 1672              		.global	SDCD1
 1673 0004 AFF30080 		.section	.bss.SDCD1,"aw",%nobits
 1673      AFF30080 
 1673      AFF30080 
 1674              		.align	2
 1675              		.set	.LANCHOR0,. + 0
 1676              		.type	SDCD1, %object
 1677              		.size	SDCD1, 76
 1678              	SDCD1:
 1679 0000 00000000 		.space	76
 1679      00000000 
 1679      00000000 
 1679      00000000 
 1679      00000000 
 1680              		.section	.bss.u,"aw",%nobits
 1681              		.align	2
 1682              		.set	.LANCHOR1,. + 0
 1683              		.type	u, %object
 1684              		.size	u, 512
 1685              	u:
 1686 0000 00000000 		.space	512
 1686      00000000 
 1686      00000000 
 1686      00000000 
 1686      00000000 
ARM GAS  /tmp/cciw5GO7.s 			page 31


 1687              		.section	.rodata.str1.4,"aMS",%progbits,1
 1688              		.align	2
 1689              	.LC0:
 1690 0000 7364635F 		.ascii	"sdc_lld_start(), #1\000"
 1690      6C6C645F 
 1690      73746172 
 1690      7428292C 
 1690      20233100 
 1691              	.LC1:
 1692 0014 7364635F 		.ascii	"sdc_lld_start_data_transaction(), #1\000"
 1692      6C6C645F 
 1692      73746172 
 1692      745F6461 
 1692      74615F74 
 1693 0039 000000   		.space	3
 1694              	.LC2:
 1695 003c 7364635F 		.ascii	"sdc_lld_start_data_transaction(), #2\000"
 1695      6C6C645F 
 1695      73746172 
 1695      745F6461 
 1695      74615F74 
 1696 0061 000000   		.space	3
 1697              	.LC3:
 1698 0064 226D6178 		.ascii	"\"max transaction size\"()\000"
 1698      20747261 
 1698      6E736163 
 1698      74696F6E 
 1698      2073697A 
 1699 007d 000000   		.text
 1700              	.Letext0:
 1701              		.file 2 "/usr/arm-none-eabi/include/machine/_default_types.h"
 1702              		.file 3 "/usr/arm-none-eabi/include/stdint.h"
 1703              		.file 4 "../../../os/ports/GCC/ARMCMx/chtypes.h"
 1704              		.file 5 "../../../os/kernel/include/chlists.h"
 1705              		.file 6 "../../../os/kernel/include/chthreads.h"
 1706              		.file 7 "../../../os/ports/GCC/ARMCMx/chcore_v7m.h"
 1707              		.file 8 "../../../os/kernel/include/chschd.h"
 1708              		.file 9 "../../../os/kernel/include/chmtx.h"
 1709              		.file 10 "../../../os/hal/platforms/STM32F4xx/stm32f4xx.h"
 1710              		.file 11 "../../../os/hal/platforms/STM32F4xx/stm32_dma.h"
 1711              		.file 12 "../../../os/hal/include/io_block.h"
 1712              		.file 13 "../../../os/hal/platforms/STM32/sdc_lld.h"
 1713              		.file 14 "../../../os/ports/common/ARMCMx/CMSIS/include/core_cm4.h"
 1714              		.file 15 "../../../os/kernel/include/chdebug.h"
 1715              		.file 16 "../../../os/hal/include/sdc.h"
 1716              		.file 17 "../../../os/ports/common/ARMCMx/nvic.h"