ARM GAS  /tmp/ccnagQWr.s 			page 1


   1              		.syntax unified
   2              		.cpu cortex-m4
   3              		.fpu softvfp
   4              		.eabi_attribute 20, 1
   5              		.eabi_attribute 21, 1
   6              		.eabi_attribute 23, 3
   7              		.eabi_attribute 24, 1
   8              		.eabi_attribute 25, 1
   9              		.eabi_attribute 26, 1
  10              		.eabi_attribute 30, 2
  11              		.eabi_attribute 34, 1
  12              		.eabi_attribute 18, 4
  13              		.thumb
  14              		.file	"serial.c"
  15              		.text
  16              	.Ltext0:
  17              		.cfi_sections	.debug_frame
  18              		.section	.text.readt,"ax",%progbits
  19              		.align	2
  20              		.p2align 4,,15
  21              		.thumb
  22              		.thumb_func
  23              		.type	readt, %function
  24              	readt:
  25              	.LFB125:
  26              		.file 1 "../../../os/hal/src/serial.c"
  27              		.loc 1 99 0
  28              		.cfi_startproc
  29              		@ args = 0, pretend = 0, frame = 0
  30              		@ frame_needed = 0, uses_anonymous_args = 0
  31              		@ link register save eliminated.
  32              	.LVL0:
  33              		.loc 1 101 0
  34 0000 0C30     		adds	r0, r0, #12
  35              	.LVL1:
  36 0002 FFF7FEBF 		b	chIQReadTimeout
  37              	.LVL2:
  38              		.cfi_endproc
  39              	.LFE125:
  40              		.size	readt, .-readt
  41 0006 00BFAFF3 		.section	.text.read,"ax",%progbits
  41      0080AFF3 
  41      0080
  42              		.align	2
  43              		.p2align 4,,15
  44              		.thumb
  45              		.thumb_func
  46              		.type	read, %function
  47              	read:
  48              	.LFB119:
  49              		.loc 1 68 0
  50              		.cfi_startproc
  51              		@ args = 0, pretend = 0, frame = 0
  52              		@ frame_needed = 0, uses_anonymous_args = 0
  53              		@ link register save eliminated.
  54              	.LVL3:
  55              		.loc 1 70 0
ARM GAS  /tmp/ccnagQWr.s 			page 2


  56 0000 0C30     		adds	r0, r0, #12
  57              	.LVL4:
  58 0002 4FF0FF33 		mov	r3, #-1
  59 0006 FFF7FEBF 		b	chIQReadTimeout
  60              	.LVL5:
  61              		.cfi_endproc
  62              	.LFE119:
  63              		.size	read, .-read
  64 000a 00BFAFF3 		.section	.text.writet,"ax",%progbits
  64      0080
  65              		.align	2
  66              		.p2align 4,,15
  67              		.thumb
  68              		.thumb_func
  69              		.type	writet, %function
  70              	writet:
  71              	.LFB124:
  72              		.loc 1 94 0
  73              		.cfi_startproc
  74              		@ args = 0, pretend = 0, frame = 0
  75              		@ frame_needed = 0, uses_anonymous_args = 0
  76              		@ link register save eliminated.
  77              	.LVL6:
  78              		.loc 1 96 0
  79 0000 3030     		adds	r0, r0, #48
  80              	.LVL7:
  81 0002 FFF7FEBF 		b	chOQWriteTimeout
  82              	.LVL8:
  83              		.cfi_endproc
  84              	.LFE124:
  85              		.size	writet, .-writet
  86 0006 00BFAFF3 		.section	.text.write,"ax",%progbits
  86      0080AFF3 
  86      0080
  87              		.align	2
  88              		.p2align 4,,15
  89              		.thumb
  90              		.thumb_func
  91              		.type	write, %function
  92              	write:
  93              	.LFB118:
  94              		.loc 1 62 0
  95              		.cfi_startproc
  96              		@ args = 0, pretend = 0, frame = 0
  97              		@ frame_needed = 0, uses_anonymous_args = 0
  98              		@ link register save eliminated.
  99              	.LVL9:
 100              		.loc 1 64 0
 101 0000 3030     		adds	r0, r0, #48
 102              	.LVL10:
 103 0002 4FF0FF33 		mov	r3, #-1
 104 0006 FFF7FEBF 		b	chOQWriteTimeout
 105              	.LVL11:
 106              		.cfi_endproc
 107              	.LFE118:
 108              		.size	write, .-write
 109 000a 00BFAFF3 		.section	.text.gett,"ax",%progbits
ARM GAS  /tmp/ccnagQWr.s 			page 3


 109      0080
 110              		.align	2
 111              		.p2align 4,,15
 112              		.thumb
 113              		.thumb_func
 114              		.type	gett, %function
 115              	gett:
 116              	.LFB123:
 117              		.loc 1 89 0
 118              		.cfi_startproc
 119              		@ args = 0, pretend = 0, frame = 0
 120              		@ frame_needed = 0, uses_anonymous_args = 0
 121              		@ link register save eliminated.
 122              	.LVL12:
 123              		.loc 1 91 0
 124 0000 0C30     		adds	r0, r0, #12
 125              	.LVL13:
 126 0002 FFF7FEBF 		b	chIQGetTimeout
 127              	.LVL14:
 128              		.cfi_endproc
 129              	.LFE123:
 130              		.size	gett, .-gett
 131 0006 00BFAFF3 		.section	.text.get,"ax",%progbits
 131      0080AFF3 
 131      0080
 132              		.align	2
 133              		.p2align 4,,15
 134              		.thumb
 135              		.thumb_func
 136              		.type	get, %function
 137              	get:
 138              	.LFB121:
 139              		.loc 1 79 0
 140              		.cfi_startproc
 141              		@ args = 0, pretend = 0, frame = 0
 142              		@ frame_needed = 0, uses_anonymous_args = 0
 143              		@ link register save eliminated.
 144              	.LVL15:
 145              		.loc 1 81 0
 146 0000 0C30     		adds	r0, r0, #12
 147              	.LVL16:
 148 0002 4FF0FF31 		mov	r1, #-1
 149 0006 FFF7FEBF 		b	chIQGetTimeout
 150              	.LVL17:
 151              		.cfi_endproc
 152              	.LFE121:
 153              		.size	get, .-get
 154 000a 00BFAFF3 		.section	.text.putt,"ax",%progbits
 154      0080
 155              		.align	2
 156              		.p2align 4,,15
 157              		.thumb
 158              		.thumb_func
 159              		.type	putt, %function
 160              	putt:
 161              	.LFB122:
 162              		.loc 1 84 0
ARM GAS  /tmp/ccnagQWr.s 			page 4


 163              		.cfi_startproc
 164              		@ args = 0, pretend = 0, frame = 0
 165              		@ frame_needed = 0, uses_anonymous_args = 0
 166              		@ link register save eliminated.
 167              	.LVL18:
 168              		.loc 1 86 0
 169 0000 3030     		adds	r0, r0, #48
 170              	.LVL19:
 171 0002 FFF7FEBF 		b	chOQPutTimeout
 172              	.LVL20:
 173              		.cfi_endproc
 174              	.LFE122:
 175              		.size	putt, .-putt
 176 0006 00BFAFF3 		.section	.text.put,"ax",%progbits
 176      0080AFF3 
 176      0080
 177              		.align	2
 178              		.p2align 4,,15
 179              		.thumb
 180              		.thumb_func
 181              		.type	put, %function
 182              	put:
 183              	.LFB120:
 184              		.loc 1 74 0
 185              		.cfi_startproc
 186              		@ args = 0, pretend = 0, frame = 0
 187              		@ frame_needed = 0, uses_anonymous_args = 0
 188              		@ link register save eliminated.
 189              	.LVL21:
 190              		.loc 1 76 0
 191 0000 3030     		adds	r0, r0, #48
 192              	.LVL22:
 193 0002 4FF0FF32 		mov	r2, #-1
 194 0006 FFF7FEBF 		b	chOQPutTimeout
 195              	.LVL23:
 196              		.cfi_endproc
 197              	.LFE120:
 198              		.size	put, .-put
 199 000a 00BFAFF3 		.section	.text.sdInit,"ax",%progbits
 199      0080
 200              		.align	2
 201              		.p2align 4,,15
 202              		.global	sdInit
 203              		.thumb
 204              		.thumb_func
 205              		.type	sdInit, %function
 206              	sdInit:
 207              	.LFB126:
 208              		.loc 1 120 0
 209              		.cfi_startproc
 210              		@ args = 0, pretend = 0, frame = 0
 211              		@ frame_needed = 0, uses_anonymous_args = 0
 212              		@ link register save eliminated.
 213              		.loc 1 122 0
 214 0000 FFF7FEBF 		b	sd_lld_init
 215              	.LVL24:
 216              		.cfi_endproc
ARM GAS  /tmp/ccnagQWr.s 			page 5


 217              	.LFE126:
 218              		.size	sdInit, .-sdInit
 219 0004 AFF30080 		.section	.text.sdObjectInit,"ax",%progbits
 219      AFF30080 
 219      AFF30080 
 220              		.align	2
 221              		.p2align 4,,15
 222              		.global	sdObjectInit
 223              		.thumb
 224              		.thumb_func
 225              		.type	sdObjectInit, %function
 226              	sdObjectInit:
 227              	.LFB127:
 228              		.loc 1 140 0
 229              		.cfi_startproc
 230              		@ args = 0, pretend = 0, frame = 0
 231              		@ frame_needed = 0, uses_anonymous_args = 0
 232              	.LVL25:
 233 0000 70B5     		push	{r4, r5, r6, lr}
 234              		.cfi_def_cfa_offset 16
 235              		.cfi_offset 4, -16
 236              		.cfi_offset 5, -12
 237              		.cfi_offset 6, -8
 238              		.cfi_offset 14, -4
 239              		.loc 1 142 0
 240 0002 0E4B     		ldr	r3, .L12
 241              		.loc 1 140 0
 242 0004 0446     		mov	r4, r0
 243 0006 82B0     		sub	sp, sp, #8
 244              		.cfi_def_cfa_offset 24
 245              		.loc 1 142 0
 246 0008 40F8043B 		str	r3, [r0], #4
 247              	.LVL26:
 248              		.loc 1 144 0
 249 000c 0126     		movs	r6, #1
 250              		.loc 1 145 0
 251 000e 0094     		str	r4, [sp]
 252              		.loc 1 140 0
 253 0010 0B46     		mov	r3, r1
 254 0012 1546     		mov	r5, r2
 255              		.loc 1 143 0
 256 0014 6060     		str	r0, [r4, #4]
 257              		.loc 1 145 0
 258 0016 04F15401 		add	r1, r4, #84
 259              	.LVL27:
 260 001a 04F10C00 		add	r0, r4, #12
 261              		.loc 1 144 0
 262 001e 2672     		strb	r6, [r4, #8]
 263              		.loc 1 145 0
 264 0020 1022     		movs	r2, #16
 265              	.LVL28:
 266 0022 FFF7FEFF 		bl	chIQInit
 267              	.LVL29:
 268              		.loc 1 146 0
 269 0026 0094     		str	r4, [sp]
 270 0028 2B46     		mov	r3, r5
 271 002a 04F13000 		add	r0, r4, #48
ARM GAS  /tmp/ccnagQWr.s 			page 6


 272 002e 04F16401 		add	r1, r4, #100
 273 0032 1022     		movs	r2, #16
 274 0034 FFF7FEFF 		bl	chOQInit
 275              	.LVL30:
 276              		.loc 1 147 0
 277 0038 02B0     		add	sp, sp, #8
 278              		.cfi_def_cfa_offset 16
 279              		@ sp needed
 280 003a 70BD     		pop	{r4, r5, r6, pc}
 281              	.LVL31:
 282              	.L13:
 283              		.align	2
 284              	.L12:
 285 003c 00000000 		.word	.LANCHOR0
 286              		.cfi_endproc
 287              	.LFE127:
 288              		.size	sdObjectInit, .-sdObjectInit
 289              		.section	.text.sdStart,"ax",%progbits
 290              		.align	2
 291              		.p2align 4,,15
 292              		.global	sdStart
 293              		.thumb
 294              		.thumb_func
 295              		.type	sdStart, %function
 296              	sdStart:
 297              	.LFB128:
 298              		.loc 1 159 0
 299              		.cfi_startproc
 300              		@ args = 0, pretend = 0, frame = 0
 301              		@ frame_needed = 0, uses_anonymous_args = 0
 302              	.LVL32:
 303 0000 38B5     		push	{r3, r4, r5, lr}
 304              		.cfi_def_cfa_offset 16
 305              		.cfi_offset 3, -16
 306              		.cfi_offset 4, -12
 307              		.cfi_offset 5, -8
 308              		.cfi_offset 14, -4
 309              		.loc 1 159 0
 310 0002 0D46     		mov	r5, r1
 311              		.loc 1 161 0
 312 0004 0446     		mov	r4, r0
 313 0006 B8B1     		cbz	r0, .L19
 314              	.LVL33:
 315              	.L15:
 316              	.LBB2:
 317              		.loc 1 163 0
 318 0008 2023     		movs	r3, #32
 319              	@ 163 "../../../os/hal/src/serial.c" 1
 320 000a 83F31188 		msr     BASEPRI, r3
 321              	@ 0 "" 2
 322              		.thumb
 323              	.LBE2:
 324 000e FFF7FEFF 		bl	dbg_check_lock
 325              	.LVL34:
 326              		.loc 1 164 0
 327 0012 237A     		ldrb	r3, [r4, #8]	@ zero_extendqisi2
 328 0014 013B     		subs	r3, r3, #1
ARM GAS  /tmp/ccnagQWr.s 			page 7


 329 0016 012B     		cmp	r3, #1
 330 0018 02D9     		bls	.L16
 331              		.loc 1 164 0 is_stmt 0 discriminator 1
 332 001a 0948     		ldr	r0, .L20
 333 001c FFF7FEFF 		bl	chDbgPanic
 334              	.LVL35:
 335              	.L16:
 336              		.loc 1 167 0 is_stmt 1
 337 0020 2946     		mov	r1, r5
 338 0022 2046     		mov	r0, r4
 339 0024 FFF7FEFF 		bl	sd_lld_start
 340              	.LVL36:
 341              		.loc 1 168 0
 342 0028 0223     		movs	r3, #2
 343 002a 2372     		strb	r3, [r4, #8]
 344              		.loc 1 169 0
 345 002c FFF7FEFF 		bl	dbg_check_unlock
 346              	.LVL37:
 347              	.LBB3:
 348 0030 0023     		movs	r3, #0
 349              	@ 169 "../../../os/hal/src/serial.c" 1
 350 0032 83F31188 		msr     BASEPRI, r3
 351              	@ 0 "" 2
 352              		.thumb
 353 0036 38BD     		pop	{r3, r4, r5, pc}
 354              	.LVL38:
 355              	.L19:
 356              	.LBE3:
 357              		.loc 1 161 0 discriminator 1
 358 0038 0248     		ldr	r0, .L20+4
 359              	.LVL39:
 360 003a FFF7FEFF 		bl	chDbgPanic
 361              	.LVL40:
 362 003e E3E7     		b	.L15
 363              	.L21:
 364              		.align	2
 365              	.L20:
 366 0040 0C000000 		.word	.LC1
 367 0044 00000000 		.word	.LC0
 368              		.cfi_endproc
 369              	.LFE128:
 370              		.size	sdStart, .-sdStart
 371 0048 AFF30080 		.section	.text.sdStop,"ax",%progbits
 371      AFF30080 
 372              		.align	2
 373              		.p2align 4,,15
 374              		.global	sdStop
 375              		.thumb
 376              		.thumb_func
 377              		.type	sdStop, %function
 378              	sdStop:
 379              	.LFB129:
 380              		.loc 1 181 0
 381              		.cfi_startproc
 382              		@ args = 0, pretend = 0, frame = 0
 383              		@ frame_needed = 0, uses_anonymous_args = 0
 384              	.LVL41:
ARM GAS  /tmp/ccnagQWr.s 			page 8


 385 0000 10B5     		push	{r4, lr}
 386              		.cfi_def_cfa_offset 8
 387              		.cfi_offset 4, -8
 388              		.cfi_offset 14, -4
 389              		.loc 1 183 0
 390 0002 0446     		mov	r4, r0
 391 0004 00B3     		cbz	r0, .L26
 392              	.LVL42:
 393              	.L23:
 394              	.LBB4:
 395              		.loc 1 185 0
 396 0006 2023     		movs	r3, #32
 397              	@ 185 "../../../os/hal/src/serial.c" 1
 398 0008 83F31188 		msr     BASEPRI, r3
 399              	@ 0 "" 2
 400              		.thumb
 401              	.LBE4:
 402 000c FFF7FEFF 		bl	dbg_check_lock
 403              	.LVL43:
 404              		.loc 1 186 0
 405 0010 237A     		ldrb	r3, [r4, #8]	@ zero_extendqisi2
 406 0012 013B     		subs	r3, r3, #1
 407 0014 012B     		cmp	r3, #1
 408 0016 02D9     		bls	.L24
 409              		.loc 1 186 0 is_stmt 0 discriminator 1
 410 0018 0D48     		ldr	r0, .L27
 411 001a FFF7FEFF 		bl	chDbgPanic
 412              	.LVL44:
 413              	.L24:
 414              		.loc 1 189 0 is_stmt 1
 415 001e 2046     		mov	r0, r4
 416 0020 FFF7FEFF 		bl	sd_lld_stop
 417              	.LVL45:
 418              		.loc 1 190 0
 419 0024 0123     		movs	r3, #1
 420 0026 2372     		strb	r3, [r4, #8]
 421              		.loc 1 191 0
 422 0028 04F13000 		add	r0, r4, #48
 423 002c FFF7FEFF 		bl	chOQResetI
 424              	.LVL46:
 425              		.loc 1 192 0
 426 0030 04F10C00 		add	r0, r4, #12
 427 0034 FFF7FEFF 		bl	chIQResetI
 428              	.LVL47:
 429              		.loc 1 193 0
 430 0038 FFF7FEFF 		bl	chSchRescheduleS
 431              	.LVL48:
 432              		.loc 1 194 0
 433 003c FFF7FEFF 		bl	dbg_check_unlock
 434              	.LVL49:
 435              	.LBB5:
 436 0040 0023     		movs	r3, #0
 437              	@ 194 "../../../os/hal/src/serial.c" 1
 438 0042 83F31188 		msr     BASEPRI, r3
 439              	@ 0 "" 2
 440              		.thumb
 441 0046 10BD     		pop	{r4, pc}
ARM GAS  /tmp/ccnagQWr.s 			page 9


 442              	.LVL50:
 443              	.L26:
 444              	.LBE5:
 445              		.loc 1 183 0 discriminator 1
 446 0048 0248     		ldr	r0, .L27+4
 447              	.LVL51:
 448 004a FFF7FEFF 		bl	chDbgPanic
 449              	.LVL52:
 450 004e DAE7     		b	.L23
 451              	.L28:
 452              		.align	2
 453              	.L27:
 454 0050 28000000 		.word	.LC3
 455 0054 1C000000 		.word	.LC2
 456              		.cfi_endproc
 457              	.LFE129:
 458              		.size	sdStop, .-sdStop
 459 0058 AFF30080 		.section	.text.sdIncomingDataI,"ax",%progbits
 459      AFF30080 
 460              		.align	2
 461              		.p2align 4,,15
 462              		.global	sdIncomingDataI
 463              		.thumb
 464              		.thumb_func
 465              		.type	sdIncomingDataI, %function
 466              	sdIncomingDataI:
 467              	.LFB130:
 468              		.loc 1 213 0
 469              		.cfi_startproc
 470              		@ args = 0, pretend = 0, frame = 0
 471              		@ frame_needed = 0, uses_anonymous_args = 0
 472              	.LVL53:
 473 0000 38B5     		push	{r3, r4, r5, lr}
 474              		.cfi_def_cfa_offset 16
 475              		.cfi_offset 3, -16
 476              		.cfi_offset 4, -12
 477              		.cfi_offset 5, -8
 478              		.cfi_offset 14, -4
 479              		.loc 1 213 0
 480 0002 0446     		mov	r4, r0
 481 0004 0D46     		mov	r5, r1
 482              		.loc 1 215 0
 483 0006 FFF7FEFF 		bl	chDbgCheckClassI
 484              	.LVL54:
 485              		.loc 1 216 0
 486 000a D4B1     		cbz	r4, .L34
 487              	.L30:
 488              		.loc 1 218 0
 489 000c 6369     		ldr	r3, [r4, #20]
 490 000e 3BB1     		cbz	r3, .L35
 491              		.loc 1 220 0
 492 0010 2946     		mov	r1, r5
 493 0012 04F10C00 		add	r0, r4, #12
 494 0016 FFF7FEFF 		bl	chIQPutI
 495              	.LVL55:
 496 001a 0028     		cmp	r0, #0
 497 001c 0BDB     		blt	.L36
ARM GAS  /tmp/ccnagQWr.s 			page 10


 498              	.L29:
 499 001e 38BD     		pop	{r3, r4, r5, pc}
 500              	.LVL56:
 501              	.L35:
 502              		.loc 1 219 0
 503 0020 201D     		adds	r0, r4, #4
 504 0022 0421     		movs	r1, #4
 505 0024 FFF7FEFF 		bl	chEvtBroadcastFlagsI
 506              	.LVL57:
 507              		.loc 1 220 0
 508 0028 2946     		mov	r1, r5
 509 002a 04F10C00 		add	r0, r4, #12
 510 002e FFF7FEFF 		bl	chIQPutI
 511              	.LVL58:
 512 0032 0028     		cmp	r0, #0
 513 0034 F3DA     		bge	.L29
 514              	.L36:
 515              		.loc 1 221 0
 516 0036 201D     		adds	r0, r4, #4
 517 0038 8021     		movs	r1, #128
 518              		.loc 1 222 0
 519 003a BDE83840 		pop	{r3, r4, r5, lr}
 520              		.cfi_remember_state
 521              		.cfi_restore 14
 522              		.cfi_restore 5
 523              		.cfi_restore 4
 524              		.cfi_restore 3
 525              		.cfi_def_cfa_offset 0
 526              	.LVL59:
 527              		.loc 1 221 0
 528 003e FFF7FEBF 		b	chEvtBroadcastFlagsI
 529              	.LVL60:
 530              	.L34:
 531              		.cfi_restore_state
 532              		.loc 1 216 0 discriminator 1
 533 0042 0248     		ldr	r0, .L37
 534 0044 FFF7FEFF 		bl	chDbgPanic
 535              	.LVL61:
 536 0048 E0E7     		b	.L30
 537              	.L38:
 538 004a 00BF     		.align	2
 539              	.L37:
 540 004c 38000000 		.word	.LC4
 541              		.cfi_endproc
 542              	.LFE130:
 543              		.size	sdIncomingDataI, .-sdIncomingDataI
 544              		.section	.text.sdRequestDataI,"ax",%progbits
 545              		.align	2
 546              		.p2align 4,,15
 547              		.global	sdRequestDataI
 548              		.thumb
 549              		.thumb_func
 550              		.type	sdRequestDataI, %function
 551              	sdRequestDataI:
 552              	.LFB131:
 553              		.loc 1 239 0
 554              		.cfi_startproc
ARM GAS  /tmp/ccnagQWr.s 			page 11


 555              		@ args = 0, pretend = 0, frame = 0
 556              		@ frame_needed = 0, uses_anonymous_args = 0
 557              	.LVL62:
 558 0000 38B5     		push	{r3, r4, r5, lr}
 559              		.cfi_def_cfa_offset 16
 560              		.cfi_offset 3, -16
 561              		.cfi_offset 4, -12
 562              		.cfi_offset 5, -8
 563              		.cfi_offset 14, -4
 564              		.loc 1 239 0
 565 0002 0446     		mov	r4, r0
 566              		.loc 1 242 0
 567 0004 FFF7FEFF 		bl	chDbgCheckClassI
 568              	.LVL63:
 569              		.loc 1 243 0
 570 0008 6CB1     		cbz	r4, .L43
 571              	.L40:
 572              		.loc 1 245 0
 573 000a 04F13000 		add	r0, r4, #48
 574 000e FFF7FEFF 		bl	chOQGetI
 575              	.LVL64:
 576              		.loc 1 246 0
 577 0012 051E     		subs	r5, r0, #0
 578 0014 01DB     		blt	.L44
 579              		.loc 1 249 0
 580 0016 2846     		mov	r0, r5
 581 0018 38BD     		pop	{r3, r4, r5, pc}
 582              	.LVL65:
 583              	.L44:
 584              		.loc 1 247 0
 585 001a 201D     		adds	r0, r4, #4
 586              	.LVL66:
 587 001c 0821     		movs	r1, #8
 588 001e FFF7FEFF 		bl	chEvtBroadcastFlagsI
 589              	.LVL67:
 590              		.loc 1 249 0
 591 0022 2846     		mov	r0, r5
 592 0024 38BD     		pop	{r3, r4, r5, pc}
 593              	.LVL68:
 594              	.L43:
 595              		.loc 1 243 0 discriminator 1
 596 0026 0248     		ldr	r0, .L45
 597 0028 FFF7FEFF 		bl	chDbgPanic
 598              	.LVL69:
 599 002c EDE7     		b	.L40
 600              	.L46:
 601 002e 00BF     		.align	2
 602              	.L45:
 603 0030 4C000000 		.word	.LC5
 604              		.cfi_endproc
 605              	.LFE131:
 606              		.size	sdRequestDataI, .-sdRequestDataI
 607 0034 AFF30080 		.section	.rodata.str1.4,"aMS",%progbits,1
 607      AFF30080 
 607      AFF30080 
 608              		.align	2
 609              	.LC0:
ARM GAS  /tmp/ccnagQWr.s 			page 12


 610 0000 22736453 		.ascii	"\"sdStart\"()\000"
 610      74617274 
 610      22282900 
 611              	.LC1:
 612 000c 73645374 		.ascii	"sdStart(), #1\000"
 612      61727428 
 612      292C2023 
 612      3100
 613 001a 0000     		.space	2
 614              	.LC2:
 615 001c 22736453 		.ascii	"\"sdStop\"()\000"
 615      746F7022 
 615      282900
 616 0027 00       		.space	1
 617              	.LC3:
 618 0028 73645374 		.ascii	"sdStop(), #1\000"
 618      6F702829 
 618      2C202331 
 618      00
 619 0035 000000   		.space	3
 620              	.LC4:
 621 0038 22736449 		.ascii	"\"sdIncomingDataI\"()\000"
 621      6E636F6D 
 621      696E6744 
 621      61746149 
 621      22282900 
 622              	.LC5:
 623 004c 22736452 		.ascii	"\"sdRequestDataI\"()\000"
 623      65717565 
 623      73744461 
 623      74614922 
 623      282900
 624 005f 00       		.section	.rodata.vmt,"a",%progbits
 625              		.align	2
 626              		.set	.LANCHOR0,. + 0
 627              		.type	vmt, %object
 628              		.size	vmt, 32
 629              	vmt:
 630 0000 00000000 		.word	write
 631 0004 00000000 		.word	read
 632 0008 00000000 		.word	put
 633 000c 00000000 		.word	get
 634 0010 00000000 		.word	putt
 635 0014 00000000 		.word	gett
 636 0018 00000000 		.word	writet
 637 001c 00000000 		.word	readt
 638              		.text
 639              	.Letext0:
 640              		.file 2 "/usr/lib/gcc/arm-none-eabi/4.9.2/include/stddef.h"
 641              		.file 3 "/usr/arm-none-eabi/include/machine/_default_types.h"
 642              		.file 4 "/usr/arm-none-eabi/include/stdint.h"
 643              		.file 5 "../../../os/ports/GCC/ARMCMx/chtypes.h"
 644              		.file 6 "../../../os/kernel/include/chlists.h"
 645              		.file 7 "../../../os/kernel/include/chthreads.h"
 646              		.file 8 "../../../os/ports/GCC/ARMCMx/chcore_v7m.h"
 647              		.file 9 "../../../os/kernel/include/chmtx.h"
 648              		.file 10 "../../../os/kernel/include/chevents.h"
ARM GAS  /tmp/ccnagQWr.s 			page 13


 649              		.file 11 "../../../os/kernel/include/chqueues.h"
 650              		.file 12 "../../../os/hal/platforms/STM32F4xx/stm32f4xx.h"
 651              		.file 13 "../../../os/hal/include/serial.h"
 652              		.file 14 "../../../os/hal/platforms/STM32/USARTv1/serial_lld.h"
 653              		.file 15 "../../../os/kernel/include/chdebug.h"
 654              		.file 16 "../../../os/kernel/include/chschd.h"
 655              		.file 17 "../../../os/ports/common/ARMCMx/CMSIS/include/core_cm4.h"
 656              		.section	.debug_info,"",%progbits
 657              	.Ldebug_info0:
 658 0000 D6100000 		.4byte	0x10d6
 659 0004 0400     		.2byte	0x4
 660 0006 00000000 		.4byte	.Ldebug_abbrev0
 661 000a 04       		.byte	0x4
 662 000b 01       		.uleb128 0x1
 663 000c 6E000000 		.4byte	.LASF144
 664 0010 01       		.byte	0x1
 665 0011 89060000 		.4byte	.LASF145
 666 0015 2A020000 		.4byte	.LASF146
 667 0019 00000000 		.4byte	.Ldebug_ranges0+0
 668 001d 00000000 		.4byte	0
 669 0021 00000000 		.4byte	.Ldebug_line0
 670 0025 02       		.uleb128 0x2
 671 0026 04       		.byte	0x4
 672 0027 05       		.byte	0x5
 673 0028 696E7400 		.ascii	"int\000"
 674 002c 03       		.uleb128 0x3
 675 002d 0F000000 		.4byte	.LASF2
 676 0031 02       		.byte	0x2
 677 0032 D4       		.byte	0xd4
 678 0033 37000000 		.4byte	0x37
 679 0037 04       		.uleb128 0x4
 680 0038 04       		.byte	0x4
 681 0039 07       		.byte	0x7
 682 003a A8020000 		.4byte	.LASF0
 683 003e 04       		.uleb128 0x4
 684 003f 01       		.byte	0x1
 685 0040 06       		.byte	0x6
 686 0041 6D010000 		.4byte	.LASF1
 687 0045 03       		.uleb128 0x3
 688 0046 32000000 		.4byte	.LASF3
 689 004a 03       		.byte	0x3
 690 004b 1D       		.byte	0x1d
 691 004c 50000000 		.4byte	0x50
 692 0050 04       		.uleb128 0x4
 693 0051 01       		.byte	0x1
 694 0052 08       		.byte	0x8
 695 0053 B0040000 		.4byte	.LASF4
 696 0057 04       		.uleb128 0x4
 697 0058 02       		.byte	0x2
 698 0059 05       		.byte	0x5
 699 005a F2040000 		.4byte	.LASF5
 700 005e 03       		.uleb128 0x3
 701 005f AD050000 		.4byte	.LASF6
 702 0063 03       		.byte	0x3
 703 0064 2B       		.byte	0x2b
 704 0065 69000000 		.4byte	0x69
 705 0069 04       		.uleb128 0x4
ARM GAS  /tmp/ccnagQWr.s 			page 14


 706 006a 02       		.byte	0x2
 707 006b 07       		.byte	0x7
 708 006c 06030000 		.4byte	.LASF7
 709 0070 03       		.uleb128 0x3
 710 0071 D4050000 		.4byte	.LASF8
 711 0075 03       		.byte	0x3
 712 0076 3F       		.byte	0x3f
 713 0077 7B000000 		.4byte	0x7b
 714 007b 04       		.uleb128 0x4
 715 007c 04       		.byte	0x4
 716 007d 05       		.byte	0x5
 717 007e AE010000 		.4byte	.LASF9
 718 0082 03       		.uleb128 0x3
 719 0083 16020000 		.4byte	.LASF10
 720 0087 03       		.byte	0x3
 721 0088 41       		.byte	0x41
 722 0089 8D000000 		.4byte	0x8d
 723 008d 04       		.uleb128 0x4
 724 008e 04       		.byte	0x4
 725 008f 07       		.byte	0x7
 726 0090 72050000 		.4byte	.LASF11
 727 0094 04       		.uleb128 0x4
 728 0095 08       		.byte	0x8
 729 0096 05       		.byte	0x5
 730 0097 5F010000 		.4byte	.LASF12
 731 009b 03       		.uleb128 0x3
 732 009c 3C040000 		.4byte	.LASF13
 733 00a0 03       		.byte	0x3
 734 00a1 5B       		.byte	0x5b
 735 00a2 A6000000 		.4byte	0xa6
 736 00a6 04       		.uleb128 0x4
 737 00a7 08       		.byte	0x8
 738 00a8 07       		.byte	0x7
 739 00a9 4C000000 		.4byte	.LASF14
 740 00ad 03       		.uleb128 0x3
 741 00ae 3A060000 		.4byte	.LASF15
 742 00b2 04       		.byte	0x4
 743 00b3 15       		.byte	0x15
 744 00b4 45000000 		.4byte	0x45
 745 00b8 03       		.uleb128 0x3
 746 00b9 B5020000 		.4byte	.LASF16
 747 00bd 04       		.byte	0x4
 748 00be 21       		.byte	0x21
 749 00bf 5E000000 		.4byte	0x5e
 750 00c3 03       		.uleb128 0x3
 751 00c4 A8040000 		.4byte	.LASF17
 752 00c8 04       		.byte	0x4
 753 00c9 2C       		.byte	0x2c
 754 00ca 70000000 		.4byte	0x70
 755 00ce 03       		.uleb128 0x3
 756 00cf 52050000 		.4byte	.LASF18
 757 00d3 04       		.byte	0x4
 758 00d4 2D       		.byte	0x2d
 759 00d5 82000000 		.4byte	0x82
 760 00d9 03       		.uleb128 0x3
 761 00da 1D000000 		.4byte	.LASF19
 762 00de 04       		.byte	0x4
ARM GAS  /tmp/ccnagQWr.s 			page 15


 763 00df 39       		.byte	0x39
 764 00e0 9B000000 		.4byte	0x9b
 765 00e4 03       		.uleb128 0x3
 766 00e5 86010000 		.4byte	.LASF20
 767 00e9 05       		.byte	0x5
 768 00ea 2B       		.byte	0x2b
 769 00eb EF000000 		.4byte	0xef
 770 00ef 04       		.uleb128 0x4
 771 00f0 01       		.byte	0x1
 772 00f1 02       		.byte	0x2
 773 00f2 A2040000 		.4byte	.LASF21
 774 00f6 03       		.uleb128 0x3
 775 00f7 4C030000 		.4byte	.LASF22
 776 00fb 05       		.byte	0x5
 777 00fc 2C       		.byte	0x2c
 778 00fd AD000000 		.4byte	0xad
 779 0101 03       		.uleb128 0x3
 780 0102 B7010000 		.4byte	.LASF23
 781 0106 05       		.byte	0x5
 782 0107 2D       		.byte	0x2d
 783 0108 AD000000 		.4byte	0xad
 784 010c 03       		.uleb128 0x3
 785 010d 47040000 		.4byte	.LASF24
 786 0111 05       		.byte	0x5
 787 0112 2E       		.byte	0x2e
 788 0113 AD000000 		.4byte	0xad
 789 0117 03       		.uleb128 0x3
 790 0118 95010000 		.4byte	.LASF25
 791 011c 05       		.byte	0x5
 792 011d 2F       		.byte	0x2f
 793 011e AD000000 		.4byte	0xad
 794 0122 03       		.uleb128 0x3
 795 0123 92040000 		.4byte	.LASF26
 796 0127 05       		.byte	0x5
 797 0128 30       		.byte	0x30
 798 0129 CE000000 		.4byte	0xce
 799 012d 03       		.uleb128 0x3
 800 012e 19030000 		.4byte	.LASF27
 801 0132 05       		.byte	0x5
 802 0133 31       		.byte	0x31
 803 0134 C3000000 		.4byte	0xc3
 804 0138 03       		.uleb128 0x3
 805 0139 60030000 		.4byte	.LASF28
 806 013d 05       		.byte	0x5
 807 013e 33       		.byte	0x33
 808 013f CE000000 		.4byte	0xce
 809 0143 03       		.uleb128 0x3
 810 0144 01060000 		.4byte	.LASF29
 811 0148 05       		.byte	0x5
 812 0149 34       		.byte	0x34
 813 014a CE000000 		.4byte	0xce
 814 014e 03       		.uleb128 0x3
 815 014f BF050000 		.4byte	.LASF30
 816 0153 05       		.byte	0x5
 817 0154 35       		.byte	0x35
 818 0155 CE000000 		.4byte	0xce
 819 0159 03       		.uleb128 0x3
ARM GAS  /tmp/ccnagQWr.s 			page 16


 820 015a 2C050000 		.4byte	.LASF31
 821 015e 06       		.byte	0x6
 822 015f 2A       		.byte	0x2a
 823 0160 64010000 		.4byte	0x164
 824 0164 05       		.uleb128 0x5
 825 0165 2C050000 		.4byte	.LASF31
 826 0169 4C       		.byte	0x4c
 827 016a 07       		.byte	0x7
 828 016b 5E       		.byte	0x5e
 829 016c 6D020000 		.4byte	0x26d
 830 0170 06       		.uleb128 0x6
 831 0171 0D050000 		.4byte	.LASF32
 832 0175 07       		.byte	0x7
 833 0176 5F       		.byte	0x5f
 834 0177 8E020000 		.4byte	0x28e
 835 017b 00       		.byte	0
 836 017c 06       		.uleb128 0x6
 837 017d 81040000 		.4byte	.LASF33
 838 0181 07       		.byte	0x7
 839 0182 61       		.byte	0x61
 840 0183 8E020000 		.4byte	0x28e
 841 0187 04       		.byte	0x4
 842 0188 06       		.uleb128 0x6
 843 0189 D4030000 		.4byte	.LASF34
 844 018d 07       		.byte	0x7
 845 018e 63       		.byte	0x63
 846 018f 22010000 		.4byte	0x122
 847 0193 08       		.byte	0x8
 848 0194 06       		.uleb128 0x6
 849 0195 AE060000 		.4byte	.LASF35
 850 0199 07       		.byte	0x7
 851 019a 64       		.byte	0x64
 852 019b 53030000 		.4byte	0x353
 853 019f 0C       		.byte	0xc
 854 01a0 06       		.uleb128 0x6
 855 01a1 FD010000 		.4byte	.LASF36
 856 01a5 07       		.byte	0x7
 857 01a6 66       		.byte	0x66
 858 01a7 8E020000 		.4byte	0x28e
 859 01ab 10       		.byte	0x10
 860 01ac 06       		.uleb128 0x6
 861 01ad E3030000 		.4byte	.LASF37
 862 01b1 07       		.byte	0x7
 863 01b2 67       		.byte	0x67
 864 01b3 8E020000 		.4byte	0x28e
 865 01b7 14       		.byte	0x14
 866 01b8 06       		.uleb128 0x6
 867 01b9 13060000 		.4byte	.LASF38
 868 01bd 07       		.byte	0x7
 869 01be 6E       		.byte	0x6e
 870 01bf 69040000 		.4byte	0x469
 871 01c3 18       		.byte	0x18
 872 01c4 06       		.uleb128 0x6
 873 01c5 F8030000 		.4byte	.LASF39
 874 01c9 07       		.byte	0x7
 875 01ca 74       		.byte	0x74
 876 01cb 7B040000 		.4byte	0x47b
ARM GAS  /tmp/ccnagQWr.s 			page 17


 877 01cf 1C       		.byte	0x1c
 878 01d0 06       		.uleb128 0x6
 879 01d1 E0040000 		.4byte	.LASF40
 880 01d5 07       		.byte	0x7
 881 01d6 79       		.byte	0x79
 882 01d7 01010000 		.4byte	0x101
 883 01db 20       		.byte	0x20
 884 01dc 06       		.uleb128 0x6
 885 01dd 14050000 		.4byte	.LASF41
 886 01e1 07       		.byte	0x7
 887 01e2 7D       		.byte	0x7d
 888 01e3 F6000000 		.4byte	0xf6
 889 01e7 21       		.byte	0x21
 890 01e8 06       		.uleb128 0x6
 891 01e9 C9010000 		.4byte	.LASF42
 892 01ed 07       		.byte	0x7
 893 01ee 82       		.byte	0x82
 894 01ef 0C010000 		.4byte	0x10c
 895 01f3 22       		.byte	0x22
 896 01f4 06       		.uleb128 0x6
 897 01f5 FC040000 		.4byte	.LASF43
 898 01f9 07       		.byte	0x7
 899 01fa 88       		.byte	0x88
 900 01fb 17010000 		.4byte	0x117
 901 01ff 23       		.byte	0x23
 902 0200 06       		.uleb128 0x6
 903 0201 CE020000 		.4byte	.LASF44
 904 0205 07       		.byte	0x7
 905 0206 8F       		.byte	0x8f
 906 0207 7B030000 		.4byte	0x37b
 907 020b 24       		.byte	0x24
 908 020c 07       		.uleb128 0x7
 909 020d 705F7500 		.ascii	"p_u\000"
 910 0211 07       		.byte	0x7
 911 0212 B4       		.byte	0xb4
 912 0213 34040000 		.4byte	0x434
 913 0217 28       		.byte	0x28
 914 0218 06       		.uleb128 0x6
 915 0219 B4060000 		.4byte	.LASF45
 916 021d 07       		.byte	0x7
 917 021e B9       		.byte	0xb9
 918 021f B4020000 		.4byte	0x2b4
 919 0223 2C       		.byte	0x2c
 920 0224 06       		.uleb128 0x6
 921 0225 E4020000 		.4byte	.LASF46
 922 0229 07       		.byte	0x7
 923 022a BF       		.byte	0xbf
 924 022b 94020000 		.4byte	0x294
 925 022f 30       		.byte	0x30
 926 0230 06       		.uleb128 0x6
 927 0231 5F060000 		.4byte	.LASF47
 928 0235 07       		.byte	0x7
 929 0236 C3       		.byte	0xc3
 930 0237 2D010000 		.4byte	0x12d
 931 023b 38       		.byte	0x38
 932 023c 06       		.uleb128 0x6
 933 023d 33050000 		.4byte	.LASF48
ARM GAS  /tmp/ccnagQWr.s 			page 18


 934 0241 07       		.byte	0x7
 935 0242 C9       		.byte	0xc9
 936 0243 38010000 		.4byte	0x138
 937 0247 3C       		.byte	0x3c
 938 0248 06       		.uleb128 0x6
 939 0249 E8040000 		.4byte	.LASF49
 940 024d 07       		.byte	0x7
 941 024e D0       		.byte	0xd0
 942 024f 81040000 		.4byte	0x481
 943 0253 40       		.byte	0x40
 944 0254 06       		.uleb128 0x6
 945 0255 C9050000 		.4byte	.LASF50
 946 0259 07       		.byte	0x7
 947 025a D4       		.byte	0xd4
 948 025b 22010000 		.4byte	0x122
 949 025f 44       		.byte	0x44
 950 0260 06       		.uleb128 0x6
 951 0261 7E010000 		.4byte	.LASF51
 952 0265 07       		.byte	0x7
 953 0266 DA       		.byte	0xda
 954 0267 CA020000 		.4byte	0x2ca
 955 026b 48       		.byte	0x48
 956 026c 00       		.byte	0
 957 026d 08       		.uleb128 0x8
 958 026e 08       		.byte	0x8
 959 026f 06       		.byte	0x6
 960 0270 61       		.byte	0x61
 961 0271 8E020000 		.4byte	0x28e
 962 0275 06       		.uleb128 0x6
 963 0276 0D050000 		.4byte	.LASF32
 964 027a 06       		.byte	0x6
 965 027b 62       		.byte	0x62
 966 027c 8E020000 		.4byte	0x28e
 967 0280 00       		.byte	0
 968 0281 06       		.uleb128 0x6
 969 0282 81040000 		.4byte	.LASF33
 970 0286 06       		.byte	0x6
 971 0287 64       		.byte	0x64
 972 0288 8E020000 		.4byte	0x28e
 973 028c 04       		.byte	0x4
 974 028d 00       		.byte	0
 975 028e 09       		.uleb128 0x9
 976 028f 04       		.byte	0x4
 977 0290 59010000 		.4byte	0x159
 978 0294 03       		.uleb128 0x3
 979 0295 EB030000 		.4byte	.LASF52
 980 0299 06       		.byte	0x6
 981 029a 66       		.byte	0x66
 982 029b 6D020000 		.4byte	0x26d
 983 029f 08       		.uleb128 0x8
 984 02a0 04       		.byte	0x4
 985 02a1 06       		.byte	0x6
 986 02a2 6B       		.byte	0x6b
 987 02a3 B4020000 		.4byte	0x2b4
 988 02a7 06       		.uleb128 0x6
 989 02a8 0D050000 		.4byte	.LASF32
 990 02ac 06       		.byte	0x6
ARM GAS  /tmp/ccnagQWr.s 			page 19


 991 02ad 6D       		.byte	0x6d
 992 02ae 8E020000 		.4byte	0x28e
 993 02b2 00       		.byte	0
 994 02b3 00       		.byte	0
 995 02b4 03       		.uleb128 0x3
 996 02b5 54030000 		.4byte	.LASF53
 997 02b9 06       		.byte	0x6
 998 02ba 70       		.byte	0x70
 999 02bb 9F020000 		.4byte	0x29f
 1000 02bf 03       		.uleb128 0x3
 1001 02c0 21020000 		.4byte	.LASF54
 1002 02c4 08       		.byte	0x8
 1003 02c5 E5       		.byte	0xe5
 1004 02c6 CA020000 		.4byte	0x2ca
 1005 02ca 0A       		.uleb128 0xa
 1006 02cb 04       		.byte	0x4
 1007 02cc 03       		.uleb128 0x3
 1008 02cd 94030000 		.4byte	.LASF55
 1009 02d1 08       		.byte	0x8
 1010 02d2 EB       		.byte	0xeb
 1011 02d3 D9000000 		.4byte	0xd9
 1012 02d7 0B       		.uleb128 0xb
 1013 02d8 F1050000 		.4byte	.LASF56
 1014 02dc 24       		.byte	0x24
 1015 02dd 08       		.byte	0x8
 1016 02de 0C01     		.2byte	0x10c
 1017 02e0 53030000 		.4byte	0x353
 1018 02e4 0C       		.uleb128 0xc
 1019 02e5 723400   		.ascii	"r4\000"
 1020 02e8 08       		.byte	0x8
 1021 02e9 1F01     		.2byte	0x11f
 1022 02eb BF020000 		.4byte	0x2bf
 1023 02ef 00       		.byte	0
 1024 02f0 0C       		.uleb128 0xc
 1025 02f1 723500   		.ascii	"r5\000"
 1026 02f4 08       		.byte	0x8
 1027 02f5 2001     		.2byte	0x120
 1028 02f7 BF020000 		.4byte	0x2bf
 1029 02fb 04       		.byte	0x4
 1030 02fc 0C       		.uleb128 0xc
 1031 02fd 723600   		.ascii	"r6\000"
 1032 0300 08       		.byte	0x8
 1033 0301 2101     		.2byte	0x121
 1034 0303 BF020000 		.4byte	0x2bf
 1035 0307 08       		.byte	0x8
 1036 0308 0C       		.uleb128 0xc
 1037 0309 723700   		.ascii	"r7\000"
 1038 030c 08       		.byte	0x8
 1039 030d 2201     		.2byte	0x122
 1040 030f BF020000 		.4byte	0x2bf
 1041 0313 0C       		.byte	0xc
 1042 0314 0C       		.uleb128 0xc
 1043 0315 723800   		.ascii	"r8\000"
 1044 0318 08       		.byte	0x8
 1045 0319 2301     		.2byte	0x123
 1046 031b BF020000 		.4byte	0x2bf
 1047 031f 10       		.byte	0x10
ARM GAS  /tmp/ccnagQWr.s 			page 20


 1048 0320 0C       		.uleb128 0xc
 1049 0321 723900   		.ascii	"r9\000"
 1050 0324 08       		.byte	0x8
 1051 0325 2401     		.2byte	0x124
 1052 0327 BF020000 		.4byte	0x2bf
 1053 032b 14       		.byte	0x14
 1054 032c 0C       		.uleb128 0xc
 1055 032d 72313000 		.ascii	"r10\000"
 1056 0331 08       		.byte	0x8
 1057 0332 2501     		.2byte	0x125
 1058 0334 BF020000 		.4byte	0x2bf
 1059 0338 18       		.byte	0x18
 1060 0339 0C       		.uleb128 0xc
 1061 033a 72313100 		.ascii	"r11\000"
 1062 033e 08       		.byte	0x8
 1063 033f 2601     		.2byte	0x126
 1064 0341 BF020000 		.4byte	0x2bf
 1065 0345 1C       		.byte	0x1c
 1066 0346 0C       		.uleb128 0xc
 1067 0347 6C7200   		.ascii	"lr\000"
 1068 034a 08       		.byte	0x8
 1069 034b 2701     		.2byte	0x127
 1070 034d BF020000 		.4byte	0x2bf
 1071 0351 20       		.byte	0x20
 1072 0352 00       		.byte	0
 1073 0353 0B       		.uleb128 0xb
 1074 0354 E9050000 		.4byte	.LASF57
 1075 0358 04       		.byte	0x4
 1076 0359 08       		.byte	0x8
 1077 035a 3101     		.2byte	0x131
 1078 035c 6E030000 		.4byte	0x36e
 1079 0360 0C       		.uleb128 0xc
 1080 0361 72313300 		.ascii	"r13\000"
 1081 0365 08       		.byte	0x8
 1082 0366 3201     		.2byte	0x132
 1083 0368 6E030000 		.4byte	0x36e
 1084 036c 00       		.byte	0
 1085 036d 00       		.byte	0
 1086 036e 09       		.uleb128 0x9
 1087 036f 04       		.byte	0x4
 1088 0370 D7020000 		.4byte	0x2d7
 1089 0374 04       		.uleb128 0x4
 1090 0375 04       		.byte	0x4
 1091 0376 07       		.byte	0x7
 1092 0377 BB030000 		.4byte	.LASF58
 1093 037b 0D       		.uleb128 0xd
 1094 037c 4E010000 		.4byte	0x14e
 1095 0380 05       		.uleb128 0x5
 1096 0381 CE030000 		.4byte	.LASF59
 1097 0385 10       		.byte	0x10
 1098 0386 09       		.byte	0x9
 1099 0387 2C       		.byte	0x2c
 1100 0388 B1030000 		.4byte	0x3b1
 1101 038c 06       		.uleb128 0x6
 1102 038d 8D010000 		.4byte	.LASF60
 1103 0391 09       		.byte	0x9
 1104 0392 2D       		.byte	0x2d
ARM GAS  /tmp/ccnagQWr.s 			page 21


 1105 0393 94020000 		.4byte	0x294
 1106 0397 00       		.byte	0
 1107 0398 06       		.uleb128 0x6
 1108 0399 A6060000 		.4byte	.LASF61
 1109 039d 09       		.byte	0x9
 1110 039e 2F       		.byte	0x2f
 1111 039f 8E020000 		.4byte	0x28e
 1112 03a3 08       		.byte	0x8
 1113 03a4 06       		.uleb128 0x6
 1114 03a5 B8050000 		.4byte	.LASF62
 1115 03a9 09       		.byte	0x9
 1116 03aa 31       		.byte	0x31
 1117 03ab B1030000 		.4byte	0x3b1
 1118 03af 0C       		.byte	0xc
 1119 03b0 00       		.byte	0
 1120 03b1 09       		.uleb128 0x9
 1121 03b2 04       		.byte	0x4
 1122 03b3 80030000 		.4byte	0x380
 1123 03b7 03       		.uleb128 0x3
 1124 03b8 CE030000 		.4byte	.LASF59
 1125 03bc 09       		.byte	0x9
 1126 03bd 33       		.byte	0x33
 1127 03be 80030000 		.4byte	0x380
 1128 03c2 03       		.uleb128 0x3
 1129 03c3 4A060000 		.4byte	.LASF63
 1130 03c7 0A       		.byte	0xa
 1131 03c8 2C       		.byte	0x2c
 1132 03c9 CD030000 		.4byte	0x3cd
 1133 03cd 05       		.uleb128 0x5
 1134 03ce 4A060000 		.4byte	.LASF63
 1135 03d2 10       		.byte	0x10
 1136 03d3 0A       		.byte	0xa
 1137 03d4 31       		.byte	0x31
 1138 03d5 0A040000 		.4byte	0x40a
 1139 03d9 06       		.uleb128 0x6
 1140 03da 1C050000 		.4byte	.LASF64
 1141 03de 0A       		.byte	0xa
 1142 03df 32       		.byte	0x32
 1143 03e0 0A040000 		.4byte	0x40a
 1144 03e4 00       		.byte	0
 1145 03e5 06       		.uleb128 0x6
 1146 03e6 CB040000 		.4byte	.LASF65
 1147 03ea 0A       		.byte	0xa
 1148 03eb 35       		.byte	0x35
 1149 03ec 8E020000 		.4byte	0x28e
 1150 03f0 04       		.byte	0x4
 1151 03f1 06       		.uleb128 0x6
 1152 03f2 DB030000 		.4byte	.LASF66
 1153 03f6 0A       		.byte	0xa
 1154 03f7 37       		.byte	0x37
 1155 03f8 38010000 		.4byte	0x138
 1156 03fc 08       		.byte	0x8
 1157 03fd 06       		.uleb128 0x6
 1158 03fe D7040000 		.4byte	.LASF67
 1159 0402 0A       		.byte	0xa
 1160 0403 3A       		.byte	0x3a
 1161 0404 43010000 		.4byte	0x143
ARM GAS  /tmp/ccnagQWr.s 			page 22


 1162 0408 0C       		.byte	0xc
 1163 0409 00       		.byte	0
 1164 040a 09       		.uleb128 0x9
 1165 040b 04       		.byte	0x4
 1166 040c C2030000 		.4byte	0x3c2
 1167 0410 05       		.uleb128 0x5
 1168 0411 96020000 		.4byte	.LASF68
 1169 0415 04       		.byte	0x4
 1170 0416 0A       		.byte	0xa
 1171 0417 41       		.byte	0x41
 1172 0418 29040000 		.4byte	0x429
 1173 041c 06       		.uleb128 0x6
 1174 041d 1A060000 		.4byte	.LASF69
 1175 0421 0A       		.byte	0xa
 1176 0422 42       		.byte	0x42
 1177 0423 0A040000 		.4byte	0x40a
 1178 0427 00       		.byte	0
 1179 0428 00       		.byte	0
 1180 0429 03       		.uleb128 0x3
 1181 042a 96020000 		.4byte	.LASF68
 1182 042e 0A       		.byte	0xa
 1183 042f 45       		.byte	0x45
 1184 0430 10040000 		.4byte	0x410
 1185 0434 0E       		.uleb128 0xe
 1186 0435 04       		.byte	0x4
 1187 0436 07       		.byte	0x7
 1188 0437 96       		.byte	0x96
 1189 0438 69040000 		.4byte	0x469
 1190 043c 0F       		.uleb128 0xf
 1191 043d 16000000 		.4byte	.LASF70
 1192 0441 07       		.byte	0x7
 1193 0442 9D       		.byte	0x9d
 1194 0443 2D010000 		.4byte	0x12d
 1195 0447 0F       		.uleb128 0xf
 1196 0448 21010000 		.4byte	.LASF71
 1197 044c 07       		.byte	0x7
 1198 044d A4       		.byte	0xa4
 1199 044e 2D010000 		.4byte	0x12d
 1200 0452 0F       		.uleb128 0xf
 1201 0453 58060000 		.4byte	.LASF72
 1202 0457 07       		.byte	0x7
 1203 0458 AB       		.byte	0xab
 1204 0459 CA020000 		.4byte	0x2ca
 1205 045d 0F       		.uleb128 0xf
 1206 045e 06050000 		.4byte	.LASF73
 1207 0462 07       		.byte	0x7
 1208 0463 B2       		.byte	0xb2
 1209 0464 38010000 		.4byte	0x138
 1210 0468 00       		.byte	0
 1211 0469 09       		.uleb128 0x9
 1212 046a 04       		.byte	0x4
 1213 046b 6F040000 		.4byte	0x46f
 1214 046f 10       		.uleb128 0x10
 1215 0470 74040000 		.4byte	0x474
 1216 0474 04       		.uleb128 0x4
 1217 0475 01       		.byte	0x1
 1218 0476 08       		.byte	0x8
ARM GAS  /tmp/ccnagQWr.s 			page 23


 1219 0477 89050000 		.4byte	.LASF74
 1220 047b 09       		.uleb128 0x9
 1221 047c 04       		.byte	0x4
 1222 047d CC020000 		.4byte	0x2cc
 1223 0481 09       		.uleb128 0x9
 1224 0482 04       		.byte	0x4
 1225 0483 B7030000 		.4byte	0x3b7
 1226 0487 09       		.uleb128 0x9
 1227 0488 04       		.byte	0x4
 1228 0489 8D040000 		.4byte	0x48d
 1229 048d 11       		.uleb128 0x11
 1230 048e 2D010000 		.4byte	0x12d
 1231 0492 9C040000 		.4byte	0x49c
 1232 0496 12       		.uleb128 0x12
 1233 0497 CA020000 		.4byte	0x2ca
 1234 049b 00       		.byte	0
 1235 049c 03       		.uleb128 0x3
 1236 049d 87030000 		.4byte	.LASF75
 1237 04a1 0B       		.byte	0xb
 1238 04a2 37       		.byte	0x37
 1239 04a3 A7040000 		.4byte	0x4a7
 1240 04a7 05       		.uleb128 0x5
 1241 04a8 87030000 		.4byte	.LASF75
 1242 04ac 24       		.byte	0x24
 1243 04ad 0B       		.byte	0xb
 1244 04ae 45       		.byte	0x45
 1245 04af 14050000 		.4byte	0x514
 1246 04b3 06       		.uleb128 0x6
 1247 04b4 55010000 		.4byte	.LASF76
 1248 04b8 0B       		.byte	0xb
 1249 04b9 46       		.byte	0x46
 1250 04ba 94020000 		.4byte	0x294
 1251 04be 00       		.byte	0
 1252 04bf 06       		.uleb128 0x6
 1253 04c0 C4030000 		.4byte	.LASF77
 1254 04c4 0B       		.byte	0xb
 1255 04c5 47       		.byte	0x47
 1256 04c6 2C000000 		.4byte	0x2c
 1257 04ca 08       		.byte	0x8
 1258 04cb 06       		.uleb128 0x6
 1259 04cc D0010000 		.4byte	.LASF78
 1260 04d0 0B       		.byte	0xb
 1261 04d1 48       		.byte	0x48
 1262 04d2 36050000 		.4byte	0x536
 1263 04d6 0C       		.byte	0xc
 1264 04d7 06       		.uleb128 0x6
 1265 04d8 0D060000 		.4byte	.LASF79
 1266 04dc 0B       		.byte	0xb
 1267 04dd 49       		.byte	0x49
 1268 04de 36050000 		.4byte	0x536
 1269 04e2 10       		.byte	0x10
 1270 04e3 06       		.uleb128 0x6
 1271 04e4 D9010000 		.4byte	.LASF80
 1272 04e8 0B       		.byte	0xb
 1273 04e9 4B       		.byte	0x4b
 1274 04ea 36050000 		.4byte	0x536
 1275 04ee 14       		.byte	0x14
ARM GAS  /tmp/ccnagQWr.s 			page 24


 1276 04ef 06       		.uleb128 0x6
 1277 04f0 9A040000 		.4byte	.LASF81
 1278 04f4 0B       		.byte	0xb
 1279 04f5 4C       		.byte	0x4c
 1280 04f6 36050000 		.4byte	0x536
 1281 04fa 18       		.byte	0x18
 1282 04fb 06       		.uleb128 0x6
 1283 04fc 22060000 		.4byte	.LASF82
 1284 0500 0B       		.byte	0xb
 1285 0501 4D       		.byte	0x4d
 1286 0502 14050000 		.4byte	0x514
 1287 0506 1C       		.byte	0x1c
 1288 0507 06       		.uleb128 0x6
 1289 0508 E1010000 		.4byte	.LASF83
 1290 050c 0B       		.byte	0xb
 1291 050d 4E       		.byte	0x4e
 1292 050e CA020000 		.4byte	0x2ca
 1293 0512 20       		.byte	0x20
 1294 0513 00       		.byte	0
 1295 0514 03       		.uleb128 0x3
 1296 0515 7D030000 		.4byte	.LASF84
 1297 0519 0B       		.byte	0xb
 1298 051a 3A       		.byte	0x3a
 1299 051b 1F050000 		.4byte	0x51f
 1300 051f 09       		.uleb128 0x9
 1301 0520 04       		.byte	0x4
 1302 0521 25050000 		.4byte	0x525
 1303 0525 13       		.uleb128 0x13
 1304 0526 30050000 		.4byte	0x530
 1305 052a 12       		.uleb128 0x12
 1306 052b 30050000 		.4byte	0x530
 1307 052f 00       		.byte	0
 1308 0530 09       		.uleb128 0x9
 1309 0531 04       		.byte	0x4
 1310 0532 9C040000 		.4byte	0x49c
 1311 0536 09       		.uleb128 0x9
 1312 0537 04       		.byte	0x4
 1313 0538 AD000000 		.4byte	0xad
 1314 053c 03       		.uleb128 0x3
 1315 053d 6C030000 		.4byte	.LASF85
 1316 0541 0B       		.byte	0xb
 1317 0542 82       		.byte	0x82
 1318 0543 9C040000 		.4byte	0x49c
 1319 0547 03       		.uleb128 0x3
 1320 0548 26000000 		.4byte	.LASF86
 1321 054c 0B       		.byte	0xb
 1322 054d F5       		.byte	0xf5
 1323 054e 9C040000 		.4byte	0x49c
 1324 0552 11       		.uleb128 0x11
 1325 0553 2C000000 		.4byte	0x2c
 1326 0557 6B050000 		.4byte	0x56b
 1327 055b 12       		.uleb128 0x12
 1328 055c CA020000 		.4byte	0x2ca
 1329 0560 12       		.uleb128 0x12
 1330 0561 6B050000 		.4byte	0x56b
 1331 0565 12       		.uleb128 0x12
 1332 0566 2C000000 		.4byte	0x2c
ARM GAS  /tmp/ccnagQWr.s 			page 25


 1333 056a 00       		.byte	0
 1334 056b 09       		.uleb128 0x9
 1335 056c 04       		.byte	0x4
 1336 056d 71050000 		.4byte	0x571
 1337 0571 10       		.uleb128 0x10
 1338 0572 AD000000 		.4byte	0xad
 1339 0576 09       		.uleb128 0x9
 1340 0577 04       		.byte	0x4
 1341 0578 52050000 		.4byte	0x552
 1342 057c 11       		.uleb128 0x11
 1343 057d 2C000000 		.4byte	0x2c
 1344 0581 95050000 		.4byte	0x595
 1345 0585 12       		.uleb128 0x12
 1346 0586 CA020000 		.4byte	0x2ca
 1347 058a 12       		.uleb128 0x12
 1348 058b 36050000 		.4byte	0x536
 1349 058f 12       		.uleb128 0x12
 1350 0590 2C000000 		.4byte	0x2c
 1351 0594 00       		.byte	0
 1352 0595 09       		.uleb128 0x9
 1353 0596 04       		.byte	0x4
 1354 0597 7C050000 		.4byte	0x57c
 1355 059b 11       		.uleb128 0x11
 1356 059c 2D010000 		.4byte	0x12d
 1357 05a0 AF050000 		.4byte	0x5af
 1358 05a4 12       		.uleb128 0x12
 1359 05a5 CA020000 		.4byte	0x2ca
 1360 05a9 12       		.uleb128 0x12
 1361 05aa AD000000 		.4byte	0xad
 1362 05ae 00       		.byte	0
 1363 05af 09       		.uleb128 0x9
 1364 05b0 04       		.byte	0x4
 1365 05b1 9B050000 		.4byte	0x59b
 1366 05b5 0D       		.uleb128 0xd
 1367 05b6 B8000000 		.4byte	0xb8
 1368 05ba 0D       		.uleb128 0xd
 1369 05bb C3000000 		.4byte	0xc3
 1370 05bf 14       		.uleb128 0x14
 1371 05c0 1C       		.byte	0x1c
 1372 05c1 0C       		.byte	0xc
 1373 05c2 2905     		.2byte	0x529
 1374 05c4 7D060000 		.4byte	0x67d
 1375 05c8 0C       		.uleb128 0xc
 1376 05c9 535200   		.ascii	"SR\000"
 1377 05cc 0C       		.byte	0xc
 1378 05cd 2B05     		.2byte	0x52b
 1379 05cf B5050000 		.4byte	0x5b5
 1380 05d3 00       		.byte	0
 1381 05d4 15       		.uleb128 0x15
 1382 05d5 4F040000 		.4byte	.LASF87
 1383 05d9 0C       		.byte	0xc
 1384 05da 2C05     		.2byte	0x52c
 1385 05dc B8000000 		.4byte	0xb8
 1386 05e0 02       		.byte	0x2
 1387 05e1 0C       		.uleb128 0xc
 1388 05e2 445200   		.ascii	"DR\000"
 1389 05e5 0C       		.byte	0xc
ARM GAS  /tmp/ccnagQWr.s 			page 26


 1390 05e6 2D05     		.2byte	0x52d
 1391 05e8 B5050000 		.4byte	0x5b5
 1392 05ec 04       		.byte	0x4
 1393 05ed 15       		.uleb128 0x15
 1394 05ee 59040000 		.4byte	.LASF88
 1395 05f2 0C       		.byte	0xc
 1396 05f3 2E05     		.2byte	0x52e
 1397 05f5 B8000000 		.4byte	0xb8
 1398 05f9 06       		.byte	0x6
 1399 05fa 0C       		.uleb128 0xc
 1400 05fb 42525200 		.ascii	"BRR\000"
 1401 05ff 0C       		.byte	0xc
 1402 0600 2F05     		.2byte	0x52f
 1403 0602 B5050000 		.4byte	0x5b5
 1404 0606 08       		.byte	0x8
 1405 0607 15       		.uleb128 0x15
 1406 0608 63040000 		.4byte	.LASF89
 1407 060c 0C       		.byte	0xc
 1408 060d 3005     		.2byte	0x530
 1409 060f B8000000 		.4byte	0xb8
 1410 0613 0A       		.byte	0xa
 1411 0614 0C       		.uleb128 0xc
 1412 0615 43523100 		.ascii	"CR1\000"
 1413 0619 0C       		.byte	0xc
 1414 061a 3105     		.2byte	0x531
 1415 061c B5050000 		.4byte	0x5b5
 1416 0620 0C       		.byte	0xc
 1417 0621 15       		.uleb128 0x15
 1418 0622 6D040000 		.4byte	.LASF90
 1419 0626 0C       		.byte	0xc
 1420 0627 3205     		.2byte	0x532
 1421 0629 B8000000 		.4byte	0xb8
 1422 062d 0E       		.byte	0xe
 1423 062e 0C       		.uleb128 0xc
 1424 062f 43523200 		.ascii	"CR2\000"
 1425 0633 0C       		.byte	0xc
 1426 0634 3305     		.2byte	0x533
 1427 0636 B5050000 		.4byte	0x5b5
 1428 063a 10       		.byte	0x10
 1429 063b 15       		.uleb128 0x15
 1430 063c 77040000 		.4byte	.LASF91
 1431 0640 0C       		.byte	0xc
 1432 0641 3405     		.2byte	0x534
 1433 0643 B8000000 		.4byte	0xb8
 1434 0647 12       		.byte	0x12
 1435 0648 0C       		.uleb128 0xc
 1436 0649 43523300 		.ascii	"CR3\000"
 1437 064d 0C       		.byte	0xc
 1438 064e 3505     		.2byte	0x535
 1439 0650 B5050000 		.4byte	0x5b5
 1440 0654 14       		.byte	0x14
 1441 0655 15       		.uleb128 0x15
 1442 0656 48050000 		.4byte	.LASF92
 1443 065a 0C       		.byte	0xc
 1444 065b 3605     		.2byte	0x536
 1445 065d B8000000 		.4byte	0xb8
 1446 0661 16       		.byte	0x16
ARM GAS  /tmp/ccnagQWr.s 			page 27


 1447 0662 15       		.uleb128 0x15
 1448 0663 79010000 		.4byte	.LASF93
 1449 0667 0C       		.byte	0xc
 1450 0668 3705     		.2byte	0x537
 1451 066a B5050000 		.4byte	0x5b5
 1452 066e 18       		.byte	0x18
 1453 066f 15       		.uleb128 0x15
 1454 0670 88040000 		.4byte	.LASF94
 1455 0674 0C       		.byte	0xc
 1456 0675 3805     		.2byte	0x538
 1457 0677 B8000000 		.4byte	0xb8
 1458 067b 1A       		.byte	0x1a
 1459 067c 00       		.byte	0
 1460 067d 16       		.uleb128 0x16
 1461 067e 37030000 		.4byte	.LASF95
 1462 0682 0C       		.byte	0xc
 1463 0683 3905     		.2byte	0x539
 1464 0685 BF050000 		.4byte	0x5bf
 1465 0689 11       		.uleb128 0x11
 1466 068a 2D010000 		.4byte	0x12d
 1467 068e A2060000 		.4byte	0x6a2
 1468 0692 12       		.uleb128 0x12
 1469 0693 CA020000 		.4byte	0x2ca
 1470 0697 12       		.uleb128 0x12
 1471 0698 AD000000 		.4byte	0xad
 1472 069c 12       		.uleb128 0x12
 1473 069d 4E010000 		.4byte	0x14e
 1474 06a1 00       		.byte	0
 1475 06a2 09       		.uleb128 0x9
 1476 06a3 04       		.byte	0x4
 1477 06a4 89060000 		.4byte	0x689
 1478 06a8 11       		.uleb128 0x11
 1479 06a9 2D010000 		.4byte	0x12d
 1480 06ad BC060000 		.4byte	0x6bc
 1481 06b1 12       		.uleb128 0x12
 1482 06b2 CA020000 		.4byte	0x2ca
 1483 06b6 12       		.uleb128 0x12
 1484 06b7 4E010000 		.4byte	0x14e
 1485 06bb 00       		.byte	0
 1486 06bc 09       		.uleb128 0x9
 1487 06bd 04       		.byte	0x4
 1488 06be A8060000 		.4byte	0x6a8
 1489 06c2 11       		.uleb128 0x11
 1490 06c3 2C000000 		.4byte	0x2c
 1491 06c7 E0060000 		.4byte	0x6e0
 1492 06cb 12       		.uleb128 0x12
 1493 06cc CA020000 		.4byte	0x2ca
 1494 06d0 12       		.uleb128 0x12
 1495 06d1 6B050000 		.4byte	0x56b
 1496 06d5 12       		.uleb128 0x12
 1497 06d6 2C000000 		.4byte	0x2c
 1498 06da 12       		.uleb128 0x12
 1499 06db 4E010000 		.4byte	0x14e
 1500 06df 00       		.byte	0
 1501 06e0 09       		.uleb128 0x9
 1502 06e1 04       		.byte	0x4
 1503 06e2 C2060000 		.4byte	0x6c2
ARM GAS  /tmp/ccnagQWr.s 			page 28


 1504 06e6 11       		.uleb128 0x11
 1505 06e7 2C000000 		.4byte	0x2c
 1506 06eb 04070000 		.4byte	0x704
 1507 06ef 12       		.uleb128 0x12
 1508 06f0 CA020000 		.4byte	0x2ca
 1509 06f4 12       		.uleb128 0x12
 1510 06f5 36050000 		.4byte	0x536
 1511 06f9 12       		.uleb128 0x12
 1512 06fa 2C000000 		.4byte	0x2c
 1513 06fe 12       		.uleb128 0x12
 1514 06ff 4E010000 		.4byte	0x14e
 1515 0703 00       		.byte	0
 1516 0704 09       		.uleb128 0x9
 1517 0705 04       		.byte	0x4
 1518 0706 E6060000 		.4byte	0x6e6
 1519 070a 17       		.uleb128 0x17
 1520 070b 01       		.byte	0x1
 1521 070c 0D       		.byte	0xd
 1522 070d 64       		.byte	0x64
 1523 070e 25070000 		.4byte	0x725
 1524 0712 18       		.uleb128 0x18
 1525 0713 3E050000 		.4byte	.LASF96
 1526 0717 00       		.sleb128 0
 1527 0718 18       		.uleb128 0x18
 1528 0719 24050000 		.4byte	.LASF97
 1529 071d 01       		.sleb128 1
 1530 071e 18       		.uleb128 0x18
 1531 071f F8050000 		.4byte	.LASF98
 1532 0723 02       		.sleb128 2
 1533 0724 00       		.byte	0
 1534 0725 03       		.uleb128 0x3
 1535 0726 5B050000 		.4byte	.LASF99
 1536 072a 0D       		.byte	0xd
 1537 072b 68       		.byte	0x68
 1538 072c 0A070000 		.4byte	0x70a
 1539 0730 03       		.uleb128 0x3
 1540 0731 65050000 		.4byte	.LASF100
 1541 0735 0D       		.byte	0xd
 1542 0736 6D       		.byte	0x6d
 1543 0737 3B070000 		.4byte	0x73b
 1544 073b 05       		.uleb128 0x5
 1545 073c 65050000 		.4byte	.LASF100
 1546 0740 78       		.byte	0x78
 1547 0741 0D       		.byte	0xd
 1548 0742 87       		.byte	0x87
 1549 0743 A6070000 		.4byte	0x7a6
 1550 0747 07       		.uleb128 0x7
 1551 0748 766D7400 		.ascii	"vmt\000"
 1552 074c 0D       		.byte	0xd
 1553 074d 89       		.byte	0x89
 1554 074e 57080000 		.4byte	0x857
 1555 0752 00       		.byte	0
 1556 0753 06       		.uleb128 0x6
 1557 0754 00030000 		.4byte	.LASF101
 1558 0758 0D       		.byte	0xd
 1559 0759 8A       		.byte	0x8a
 1560 075a 29040000 		.4byte	0x429
ARM GAS  /tmp/ccnagQWr.s 			page 29


 1561 075e 04       		.byte	0x4
 1562 075f 06       		.uleb128 0x6
 1563 0760 9F010000 		.4byte	.LASF102
 1564 0764 0D       		.byte	0xd
 1565 0765 8A       		.byte	0x8a
 1566 0766 25070000 		.4byte	0x725
 1567 076a 08       		.byte	0x8
 1568 076b 06       		.uleb128 0x6
 1569 076c DD020000 		.4byte	.LASF103
 1570 0770 0D       		.byte	0xd
 1571 0771 8A       		.byte	0x8a
 1572 0772 3C050000 		.4byte	0x53c
 1573 0776 0C       		.byte	0xc
 1574 0777 06       		.uleb128 0x6
 1575 0778 1F030000 		.4byte	.LASF104
 1576 077c 0D       		.byte	0xd
 1577 077d 8A       		.byte	0x8a
 1578 077e 47050000 		.4byte	0x547
 1579 0782 30       		.byte	0x30
 1580 0783 07       		.uleb128 0x7
 1581 0784 696200   		.ascii	"ib\000"
 1582 0787 0D       		.byte	0xd
 1583 0788 8A       		.byte	0x8a
 1584 0789 62080000 		.4byte	0x862
 1585 078d 54       		.byte	0x54
 1586 078e 07       		.uleb128 0x7
 1587 078f 6F6200   		.ascii	"ob\000"
 1588 0792 0D       		.byte	0xd
 1589 0793 8A       		.byte	0x8a
 1590 0794 62080000 		.4byte	0x862
 1591 0798 64       		.byte	0x64
 1592 0799 06       		.uleb128 0x6
 1593 079a A2020000 		.4byte	.LASF105
 1594 079e 0D       		.byte	0xd
 1595 079f 8A       		.byte	0x8a
 1596 07a0 72080000 		.4byte	0x872
 1597 07a4 74       		.byte	0x74
 1598 07a5 00       		.byte	0
 1599 07a6 08       		.uleb128 0x8
 1600 07a7 0C       		.byte	0xc
 1601 07a8 0E       		.byte	0xe
 1602 07a9 D7       		.byte	0xd7
 1603 07aa DF070000 		.4byte	0x7df
 1604 07ae 06       		.uleb128 0x6
 1605 07af 77030000 		.4byte	.LASF106
 1606 07b3 0E       		.byte	0xe
 1607 07b4 DB       		.byte	0xdb
 1608 07b5 CE000000 		.4byte	0xce
 1609 07b9 00       		.byte	0
 1610 07ba 07       		.uleb128 0x7
 1611 07bb 63723100 		.ascii	"cr1\000"
 1612 07bf 0E       		.byte	0xe
 1613 07c0 E0       		.byte	0xe0
 1614 07c1 B8000000 		.4byte	0xb8
 1615 07c5 04       		.byte	0x4
 1616 07c6 07       		.uleb128 0x7
 1617 07c7 63723200 		.ascii	"cr2\000"
ARM GAS  /tmp/ccnagQWr.s 			page 30


 1618 07cb 0E       		.byte	0xe
 1619 07cc E4       		.byte	0xe4
 1620 07cd B8000000 		.4byte	0xb8
 1621 07d1 06       		.byte	0x6
 1622 07d2 07       		.uleb128 0x7
 1623 07d3 63723300 		.ascii	"cr3\000"
 1624 07d7 0E       		.byte	0xe
 1625 07d8 E8       		.byte	0xe8
 1626 07d9 B8000000 		.4byte	0xb8
 1627 07dd 08       		.byte	0x8
 1628 07de 00       		.byte	0
 1629 07df 03       		.uleb128 0x3
 1630 07e0 2F040000 		.4byte	.LASF107
 1631 07e4 0E       		.byte	0xe
 1632 07e5 E9       		.byte	0xe9
 1633 07e6 A6070000 		.4byte	0x7a6
 1634 07ea 05       		.uleb128 0x5
 1635 07eb BE020000 		.4byte	.LASF108
 1636 07ef 20       		.byte	0x20
 1637 07f0 0D       		.byte	0xd
 1638 07f1 7C       		.byte	0x7c
 1639 07f2 57080000 		.4byte	0x857
 1640 07f6 06       		.uleb128 0x6
 1641 07f7 B0030000 		.4byte	.LASF109
 1642 07fb 0D       		.byte	0xd
 1643 07fc 7D       		.byte	0x7d
 1644 07fd 76050000 		.4byte	0x576
 1645 0801 00       		.byte	0
 1646 0802 06       		.uleb128 0x6
 1647 0803 84050000 		.4byte	.LASF110
 1648 0807 0D       		.byte	0xd
 1649 0808 7D       		.byte	0x7d
 1650 0809 95050000 		.4byte	0x595
 1651 080d 04       		.byte	0x4
 1652 080e 07       		.uleb128 0x7
 1653 080f 70757400 		.ascii	"put\000"
 1654 0813 0D       		.byte	0xd
 1655 0814 7D       		.byte	0x7d
 1656 0815 AF050000 		.4byte	0x5af
 1657 0819 08       		.byte	0x8
 1658 081a 07       		.uleb128 0x7
 1659 081b 67657400 		.ascii	"get\000"
 1660 081f 0D       		.byte	0xd
 1661 0820 7D       		.byte	0x7d
 1662 0821 87040000 		.4byte	0x487
 1663 0825 0C       		.byte	0xc
 1664 0826 06       		.uleb128 0x6
 1665 0827 B6030000 		.4byte	.LASF111
 1666 082b 0D       		.byte	0xd
 1667 082c 7D       		.byte	0x7d
 1668 082d A2060000 		.4byte	0x6a2
 1669 0831 10       		.byte	0x10
 1670 0832 06       		.uleb128 0x6
 1671 0833 FB020000 		.4byte	.LASF112
 1672 0837 0D       		.byte	0xd
 1673 0838 7D       		.byte	0x7d
 1674 0839 BC060000 		.4byte	0x6bc
ARM GAS  /tmp/ccnagQWr.s 			page 31


 1675 083d 14       		.byte	0x14
 1676 083e 06       		.uleb128 0x6
 1677 083f 45030000 		.4byte	.LASF113
 1678 0843 0D       		.byte	0xd
 1679 0844 7D       		.byte	0x7d
 1680 0845 E0060000 		.4byte	0x6e0
 1681 0849 18       		.byte	0x18
 1682 084a 06       		.uleb128 0x6
 1683 084b 4F010000 		.4byte	.LASF114
 1684 084f 0D       		.byte	0xd
 1685 0850 7D       		.byte	0x7d
 1686 0851 04070000 		.4byte	0x704
 1687 0855 1C       		.byte	0x1c
 1688 0856 00       		.byte	0
 1689 0857 09       		.uleb128 0x9
 1690 0858 04       		.byte	0x4
 1691 0859 5D080000 		.4byte	0x85d
 1692 085d 10       		.uleb128 0x10
 1693 085e EA070000 		.4byte	0x7ea
 1694 0862 19       		.uleb128 0x19
 1695 0863 AD000000 		.4byte	0xad
 1696 0867 72080000 		.4byte	0x872
 1697 086b 1A       		.uleb128 0x1a
 1698 086c 74030000 		.4byte	0x374
 1699 0870 0F       		.byte	0xf
 1700 0871 00       		.byte	0
 1701 0872 09       		.uleb128 0x9
 1702 0873 04       		.byte	0x4
 1703 0874 7D060000 		.4byte	0x67d
 1704 0878 1B       		.uleb128 0x1b
 1705 0879 4F010000 		.4byte	.LASF114
 1706 087d 01       		.byte	0x1
 1707 087e 63       		.byte	0x63
 1708 087f 2C000000 		.4byte	0x2c
 1709 0883 00000000 		.4byte	.LFB125
 1710 0887 06000000 		.4byte	.LFE125-.LFB125
 1711 088b 01       		.uleb128 0x1
 1712 088c 9C       		.byte	0x9c
 1713 088d F2080000 		.4byte	0x8f2
 1714 0891 1C       		.uleb128 0x1c
 1715 0892 697000   		.ascii	"ip\000"
 1716 0895 01       		.byte	0x1
 1717 0896 63       		.byte	0x63
 1718 0897 CA020000 		.4byte	0x2ca
 1719 089b 00000000 		.4byte	.LLST0
 1720 089f 1C       		.uleb128 0x1c
 1721 08a0 627000   		.ascii	"bp\000"
 1722 08a3 01       		.byte	0x1
 1723 08a4 63       		.byte	0x63
 1724 08a5 36050000 		.4byte	0x536
 1725 08a9 2E000000 		.4byte	.LLST1
 1726 08ad 1C       		.uleb128 0x1c
 1727 08ae 6E00     		.ascii	"n\000"
 1728 08b0 01       		.byte	0x1
 1729 08b1 63       		.byte	0x63
 1730 08b2 2C000000 		.4byte	0x2c
 1731 08b6 4F000000 		.4byte	.LLST2
ARM GAS  /tmp/ccnagQWr.s 			page 32


 1732 08ba 1D       		.uleb128 0x1d
 1733 08bb 0A040000 		.4byte	.LASF115
 1734 08bf 01       		.byte	0x1
 1735 08c0 63       		.byte	0x63
 1736 08c1 4E010000 		.4byte	0x14e
 1737 08c5 70000000 		.4byte	.LLST3
 1738 08c9 1E       		.uleb128 0x1e
 1739 08ca 06000000 		.4byte	.LVL2
 1740 08ce 310F0000 		.4byte	0xf31
 1741 08d2 1F       		.uleb128 0x1f
 1742 08d3 01       		.uleb128 0x1
 1743 08d4 53       		.byte	0x53
 1744 08d5 03       		.uleb128 0x3
 1745 08d6 F3       		.byte	0xf3
 1746 08d7 01       		.uleb128 0x1
 1747 08d8 53       		.byte	0x53
 1748 08d9 1F       		.uleb128 0x1f
 1749 08da 01       		.uleb128 0x1
 1750 08db 52       		.byte	0x52
 1751 08dc 03       		.uleb128 0x3
 1752 08dd F3       		.byte	0xf3
 1753 08de 01       		.uleb128 0x1
 1754 08df 52       		.byte	0x52
 1755 08e0 1F       		.uleb128 0x1f
 1756 08e1 01       		.uleb128 0x1
 1757 08e2 51       		.byte	0x51
 1758 08e3 03       		.uleb128 0x3
 1759 08e4 F3       		.byte	0xf3
 1760 08e5 01       		.uleb128 0x1
 1761 08e6 51       		.byte	0x51
 1762 08e7 1F       		.uleb128 0x1f
 1763 08e8 01       		.uleb128 0x1
 1764 08e9 50       		.byte	0x50
 1765 08ea 05       		.uleb128 0x5
 1766 08eb F3       		.byte	0xf3
 1767 08ec 01       		.uleb128 0x1
 1768 08ed 50       		.byte	0x50
 1769 08ee 23       		.byte	0x23
 1770 08ef 0C       		.uleb128 0xc
 1771 08f0 00       		.byte	0
 1772 08f1 00       		.byte	0
 1773 08f2 1B       		.uleb128 0x1b
 1774 08f3 84050000 		.4byte	.LASF110
 1775 08f7 01       		.byte	0x1
 1776 08f8 44       		.byte	0x44
 1777 08f9 2C000000 		.4byte	0x2c
 1778 08fd 00000000 		.4byte	.LFB119
 1779 0901 0A000000 		.4byte	.LFE119-.LFB119
 1780 0905 01       		.uleb128 0x1
 1781 0906 9C       		.byte	0x9c
 1782 0907 5C090000 		.4byte	0x95c
 1783 090b 1C       		.uleb128 0x1c
 1784 090c 697000   		.ascii	"ip\000"
 1785 090f 01       		.byte	0x1
 1786 0910 44       		.byte	0x44
 1787 0911 CA020000 		.4byte	0x2ca
 1788 0915 91000000 		.4byte	.LLST4
ARM GAS  /tmp/ccnagQWr.s 			page 33


 1789 0919 1C       		.uleb128 0x1c
 1790 091a 627000   		.ascii	"bp\000"
 1791 091d 01       		.byte	0x1
 1792 091e 44       		.byte	0x44
 1793 091f 36050000 		.4byte	0x536
 1794 0923 BF000000 		.4byte	.LLST5
 1795 0927 1C       		.uleb128 0x1c
 1796 0928 6E00     		.ascii	"n\000"
 1797 092a 01       		.byte	0x1
 1798 092b 44       		.byte	0x44
 1799 092c 2C000000 		.4byte	0x2c
 1800 0930 E0000000 		.4byte	.LLST6
 1801 0934 1E       		.uleb128 0x1e
 1802 0935 0A000000 		.4byte	.LVL5
 1803 0939 310F0000 		.4byte	0xf31
 1804 093d 1F       		.uleb128 0x1f
 1805 093e 01       		.uleb128 0x1
 1806 093f 53       		.byte	0x53
 1807 0940 02       		.uleb128 0x2
 1808 0941 09       		.byte	0x9
 1809 0942 FF       		.byte	0xff
 1810 0943 1F       		.uleb128 0x1f
 1811 0944 01       		.uleb128 0x1
 1812 0945 52       		.byte	0x52
 1813 0946 03       		.uleb128 0x3
 1814 0947 F3       		.byte	0xf3
 1815 0948 01       		.uleb128 0x1
 1816 0949 52       		.byte	0x52
 1817 094a 1F       		.uleb128 0x1f
 1818 094b 01       		.uleb128 0x1
 1819 094c 51       		.byte	0x51
 1820 094d 03       		.uleb128 0x3
 1821 094e F3       		.byte	0xf3
 1822 094f 01       		.uleb128 0x1
 1823 0950 51       		.byte	0x51
 1824 0951 1F       		.uleb128 0x1f
 1825 0952 01       		.uleb128 0x1
 1826 0953 50       		.byte	0x50
 1827 0954 05       		.uleb128 0x5
 1828 0955 F3       		.byte	0xf3
 1829 0956 01       		.uleb128 0x1
 1830 0957 50       		.byte	0x50
 1831 0958 23       		.byte	0x23
 1832 0959 0C       		.uleb128 0xc
 1833 095a 00       		.byte	0
 1834 095b 00       		.byte	0
 1835 095c 1B       		.uleb128 0x1b
 1836 095d 45030000 		.4byte	.LASF113
 1837 0961 01       		.byte	0x1
 1838 0962 5E       		.byte	0x5e
 1839 0963 2C000000 		.4byte	0x2c
 1840 0967 00000000 		.4byte	.LFB124
 1841 096b 06000000 		.4byte	.LFE124-.LFB124
 1842 096f 01       		.uleb128 0x1
 1843 0970 9C       		.byte	0x9c
 1844 0971 D6090000 		.4byte	0x9d6
 1845 0975 1C       		.uleb128 0x1c
ARM GAS  /tmp/ccnagQWr.s 			page 34


 1846 0976 697000   		.ascii	"ip\000"
 1847 0979 01       		.byte	0x1
 1848 097a 5E       		.byte	0x5e
 1849 097b CA020000 		.4byte	0x2ca
 1850 097f 01010000 		.4byte	.LLST7
 1851 0983 1C       		.uleb128 0x1c
 1852 0984 627000   		.ascii	"bp\000"
 1853 0987 01       		.byte	0x1
 1854 0988 5E       		.byte	0x5e
 1855 0989 6B050000 		.4byte	0x56b
 1856 098d 2F010000 		.4byte	.LLST8
 1857 0991 1C       		.uleb128 0x1c
 1858 0992 6E00     		.ascii	"n\000"
 1859 0994 01       		.byte	0x1
 1860 0995 5E       		.byte	0x5e
 1861 0996 2C000000 		.4byte	0x2c
 1862 099a 50010000 		.4byte	.LLST9
 1863 099e 1D       		.uleb128 0x1d
 1864 099f 0A040000 		.4byte	.LASF115
 1865 09a3 01       		.byte	0x1
 1866 09a4 5E       		.byte	0x5e
 1867 09a5 4E010000 		.4byte	0x14e
 1868 09a9 71010000 		.4byte	.LLST10
 1869 09ad 1E       		.uleb128 0x1e
 1870 09ae 06000000 		.4byte	.LVL8
 1871 09b2 5C0F0000 		.4byte	0xf5c
 1872 09b6 1F       		.uleb128 0x1f
 1873 09b7 01       		.uleb128 0x1
 1874 09b8 53       		.byte	0x53
 1875 09b9 03       		.uleb128 0x3
 1876 09ba F3       		.byte	0xf3
 1877 09bb 01       		.uleb128 0x1
 1878 09bc 53       		.byte	0x53
 1879 09bd 1F       		.uleb128 0x1f
 1880 09be 01       		.uleb128 0x1
 1881 09bf 52       		.byte	0x52
 1882 09c0 03       		.uleb128 0x3
 1883 09c1 F3       		.byte	0xf3
 1884 09c2 01       		.uleb128 0x1
 1885 09c3 52       		.byte	0x52
 1886 09c4 1F       		.uleb128 0x1f
 1887 09c5 01       		.uleb128 0x1
 1888 09c6 51       		.byte	0x51
 1889 09c7 03       		.uleb128 0x3
 1890 09c8 F3       		.byte	0xf3
 1891 09c9 01       		.uleb128 0x1
 1892 09ca 51       		.byte	0x51
 1893 09cb 1F       		.uleb128 0x1f
 1894 09cc 01       		.uleb128 0x1
 1895 09cd 50       		.byte	0x50
 1896 09ce 05       		.uleb128 0x5
 1897 09cf F3       		.byte	0xf3
 1898 09d0 01       		.uleb128 0x1
 1899 09d1 50       		.byte	0x50
 1900 09d2 23       		.byte	0x23
 1901 09d3 30       		.uleb128 0x30
 1902 09d4 00       		.byte	0
ARM GAS  /tmp/ccnagQWr.s 			page 35


 1903 09d5 00       		.byte	0
 1904 09d6 1B       		.uleb128 0x1b
 1905 09d7 B0030000 		.4byte	.LASF109
 1906 09db 01       		.byte	0x1
 1907 09dc 3E       		.byte	0x3e
 1908 09dd 2C000000 		.4byte	0x2c
 1909 09e1 00000000 		.4byte	.LFB118
 1910 09e5 0A000000 		.4byte	.LFE118-.LFB118
 1911 09e9 01       		.uleb128 0x1
 1912 09ea 9C       		.byte	0x9c
 1913 09eb 400A0000 		.4byte	0xa40
 1914 09ef 1C       		.uleb128 0x1c
 1915 09f0 697000   		.ascii	"ip\000"
 1916 09f3 01       		.byte	0x1
 1917 09f4 3E       		.byte	0x3e
 1918 09f5 CA020000 		.4byte	0x2ca
 1919 09f9 92010000 		.4byte	.LLST11
 1920 09fd 1C       		.uleb128 0x1c
 1921 09fe 627000   		.ascii	"bp\000"
 1922 0a01 01       		.byte	0x1
 1923 0a02 3E       		.byte	0x3e
 1924 0a03 6B050000 		.4byte	0x56b
 1925 0a07 C0010000 		.4byte	.LLST12
 1926 0a0b 1C       		.uleb128 0x1c
 1927 0a0c 6E00     		.ascii	"n\000"
 1928 0a0e 01       		.byte	0x1
 1929 0a0f 3E       		.byte	0x3e
 1930 0a10 2C000000 		.4byte	0x2c
 1931 0a14 E1010000 		.4byte	.LLST13
 1932 0a18 1E       		.uleb128 0x1e
 1933 0a19 0A000000 		.4byte	.LVL11
 1934 0a1d 5C0F0000 		.4byte	0xf5c
 1935 0a21 1F       		.uleb128 0x1f
 1936 0a22 01       		.uleb128 0x1
 1937 0a23 53       		.byte	0x53
 1938 0a24 02       		.uleb128 0x2
 1939 0a25 09       		.byte	0x9
 1940 0a26 FF       		.byte	0xff
 1941 0a27 1F       		.uleb128 0x1f
 1942 0a28 01       		.uleb128 0x1
 1943 0a29 52       		.byte	0x52
 1944 0a2a 03       		.uleb128 0x3
 1945 0a2b F3       		.byte	0xf3
 1946 0a2c 01       		.uleb128 0x1
 1947 0a2d 52       		.byte	0x52
 1948 0a2e 1F       		.uleb128 0x1f
 1949 0a2f 01       		.uleb128 0x1
 1950 0a30 51       		.byte	0x51
 1951 0a31 03       		.uleb128 0x3
 1952 0a32 F3       		.byte	0xf3
 1953 0a33 01       		.uleb128 0x1
 1954 0a34 51       		.byte	0x51
 1955 0a35 1F       		.uleb128 0x1f
 1956 0a36 01       		.uleb128 0x1
 1957 0a37 50       		.byte	0x50
 1958 0a38 05       		.uleb128 0x5
 1959 0a39 F3       		.byte	0xf3
ARM GAS  /tmp/ccnagQWr.s 			page 36


 1960 0a3a 01       		.uleb128 0x1
 1961 0a3b 50       		.byte	0x50
 1962 0a3c 23       		.byte	0x23
 1963 0a3d 30       		.uleb128 0x30
 1964 0a3e 00       		.byte	0
 1965 0a3f 00       		.byte	0
 1966 0a40 1B       		.uleb128 0x1b
 1967 0a41 FB020000 		.4byte	.LASF112
 1968 0a45 01       		.byte	0x1
 1969 0a46 59       		.byte	0x59
 1970 0a47 2D010000 		.4byte	0x12d
 1971 0a4b 00000000 		.4byte	.LFB123
 1972 0a4f 06000000 		.4byte	.LFE123-.LFB123
 1973 0a53 01       		.uleb128 0x1
 1974 0a54 9C       		.byte	0x9c
 1975 0a55 910A0000 		.4byte	0xa91
 1976 0a59 1C       		.uleb128 0x1c
 1977 0a5a 697000   		.ascii	"ip\000"
 1978 0a5d 01       		.byte	0x1
 1979 0a5e 59       		.byte	0x59
 1980 0a5f CA020000 		.4byte	0x2ca
 1981 0a63 02020000 		.4byte	.LLST14
 1982 0a67 1D       		.uleb128 0x1d
 1983 0a68 71060000 		.4byte	.LASF116
 1984 0a6c 01       		.byte	0x1
 1985 0a6d 59       		.byte	0x59
 1986 0a6e 4E010000 		.4byte	0x14e
 1987 0a72 30020000 		.4byte	.LLST15
 1988 0a76 1E       		.uleb128 0x1e
 1989 0a77 06000000 		.4byte	.LVL14
 1990 0a7b 870F0000 		.4byte	0xf87
 1991 0a7f 1F       		.uleb128 0x1f
 1992 0a80 01       		.uleb128 0x1
 1993 0a81 51       		.byte	0x51
 1994 0a82 03       		.uleb128 0x3
 1995 0a83 F3       		.byte	0xf3
 1996 0a84 01       		.uleb128 0x1
 1997 0a85 51       		.byte	0x51
 1998 0a86 1F       		.uleb128 0x1f
 1999 0a87 01       		.uleb128 0x1
 2000 0a88 50       		.byte	0x50
 2001 0a89 05       		.uleb128 0x5
 2002 0a8a F3       		.byte	0xf3
 2003 0a8b 01       		.uleb128 0x1
 2004 0a8c 50       		.byte	0x50
 2005 0a8d 23       		.byte	0x23
 2006 0a8e 0C       		.uleb128 0xc
 2007 0a8f 00       		.byte	0
 2008 0a90 00       		.byte	0
 2009 0a91 20       		.uleb128 0x20
 2010 0a92 67657400 		.ascii	"get\000"
 2011 0a96 01       		.byte	0x1
 2012 0a97 4F       		.byte	0x4f
 2013 0a98 2D010000 		.4byte	0x12d
 2014 0a9c 00000000 		.4byte	.LFB121
 2015 0aa0 0A000000 		.4byte	.LFE121-.LFB121
 2016 0aa4 01       		.uleb128 0x1
ARM GAS  /tmp/ccnagQWr.s 			page 37


 2017 0aa5 9C       		.byte	0x9c
 2018 0aa6 D20A0000 		.4byte	0xad2
 2019 0aaa 1C       		.uleb128 0x1c
 2020 0aab 697000   		.ascii	"ip\000"
 2021 0aae 01       		.byte	0x1
 2022 0aaf 4F       		.byte	0x4f
 2023 0ab0 CA020000 		.4byte	0x2ca
 2024 0ab4 51020000 		.4byte	.LLST16
 2025 0ab8 1E       		.uleb128 0x1e
 2026 0ab9 0A000000 		.4byte	.LVL17
 2027 0abd 870F0000 		.4byte	0xf87
 2028 0ac1 1F       		.uleb128 0x1f
 2029 0ac2 01       		.uleb128 0x1
 2030 0ac3 51       		.byte	0x51
 2031 0ac4 02       		.uleb128 0x2
 2032 0ac5 09       		.byte	0x9
 2033 0ac6 FF       		.byte	0xff
 2034 0ac7 1F       		.uleb128 0x1f
 2035 0ac8 01       		.uleb128 0x1
 2036 0ac9 50       		.byte	0x50
 2037 0aca 05       		.uleb128 0x5
 2038 0acb F3       		.byte	0xf3
 2039 0acc 01       		.uleb128 0x1
 2040 0acd 50       		.byte	0x50
 2041 0ace 23       		.byte	0x23
 2042 0acf 0C       		.uleb128 0xc
 2043 0ad0 00       		.byte	0
 2044 0ad1 00       		.byte	0
 2045 0ad2 1B       		.uleb128 0x1b
 2046 0ad3 B6030000 		.4byte	.LASF111
 2047 0ad7 01       		.byte	0x1
 2048 0ad8 54       		.byte	0x54
 2049 0ad9 2D010000 		.4byte	0x12d
 2050 0add 00000000 		.4byte	.LFB122
 2051 0ae1 06000000 		.4byte	.LFE122-.LFB122
 2052 0ae5 01       		.uleb128 0x1
 2053 0ae6 9C       		.byte	0x9c
 2054 0ae7 300B0000 		.4byte	0xb30
 2055 0aeb 1C       		.uleb128 0x1c
 2056 0aec 697000   		.ascii	"ip\000"
 2057 0aef 01       		.byte	0x1
 2058 0af0 54       		.byte	0x54
 2059 0af1 CA020000 		.4byte	0x2ca
 2060 0af5 7F020000 		.4byte	.LLST17
 2061 0af9 1C       		.uleb128 0x1c
 2062 0afa 6200     		.ascii	"b\000"
 2063 0afc 01       		.byte	0x1
 2064 0afd 54       		.byte	0x54
 2065 0afe AD000000 		.4byte	0xad
 2066 0b02 AD020000 		.4byte	.LLST18
 2067 0b06 1D       		.uleb128 0x1d
 2068 0b07 71060000 		.4byte	.LASF116
 2069 0b0b 01       		.byte	0x1
 2070 0b0c 54       		.byte	0x54
 2071 0b0d 4E010000 		.4byte	0x14e
 2072 0b11 CE020000 		.4byte	.LLST19
 2073 0b15 1E       		.uleb128 0x1e
ARM GAS  /tmp/ccnagQWr.s 			page 38


 2074 0b16 06000000 		.4byte	.LVL20
 2075 0b1a A20F0000 		.4byte	0xfa2
 2076 0b1e 1F       		.uleb128 0x1f
 2077 0b1f 01       		.uleb128 0x1
 2078 0b20 52       		.byte	0x52
 2079 0b21 03       		.uleb128 0x3
 2080 0b22 F3       		.byte	0xf3
 2081 0b23 01       		.uleb128 0x1
 2082 0b24 52       		.byte	0x52
 2083 0b25 1F       		.uleb128 0x1f
 2084 0b26 01       		.uleb128 0x1
 2085 0b27 50       		.byte	0x50
 2086 0b28 05       		.uleb128 0x5
 2087 0b29 F3       		.byte	0xf3
 2088 0b2a 01       		.uleb128 0x1
 2089 0b2b 50       		.byte	0x50
 2090 0b2c 23       		.byte	0x23
 2091 0b2d 30       		.uleb128 0x30
 2092 0b2e 00       		.byte	0
 2093 0b2f 00       		.byte	0
 2094 0b30 20       		.uleb128 0x20
 2095 0b31 70757400 		.ascii	"put\000"
 2096 0b35 01       		.byte	0x1
 2097 0b36 4A       		.byte	0x4a
 2098 0b37 2D010000 		.4byte	0x12d
 2099 0b3b 00000000 		.4byte	.LFB120
 2100 0b3f 0A000000 		.4byte	.LFE120-.LFB120
 2101 0b43 01       		.uleb128 0x1
 2102 0b44 9C       		.byte	0x9c
 2103 0b45 7E0B0000 		.4byte	0xb7e
 2104 0b49 1C       		.uleb128 0x1c
 2105 0b4a 697000   		.ascii	"ip\000"
 2106 0b4d 01       		.byte	0x1
 2107 0b4e 4A       		.byte	0x4a
 2108 0b4f CA020000 		.4byte	0x2ca
 2109 0b53 EF020000 		.4byte	.LLST20
 2110 0b57 1C       		.uleb128 0x1c
 2111 0b58 6200     		.ascii	"b\000"
 2112 0b5a 01       		.byte	0x1
 2113 0b5b 4A       		.byte	0x4a
 2114 0b5c AD000000 		.4byte	0xad
 2115 0b60 1D030000 		.4byte	.LLST21
 2116 0b64 1E       		.uleb128 0x1e
 2117 0b65 0A000000 		.4byte	.LVL23
 2118 0b69 A20F0000 		.4byte	0xfa2
 2119 0b6d 1F       		.uleb128 0x1f
 2120 0b6e 01       		.uleb128 0x1
 2121 0b6f 52       		.byte	0x52
 2122 0b70 02       		.uleb128 0x2
 2123 0b71 09       		.byte	0x9
 2124 0b72 FF       		.byte	0xff
 2125 0b73 1F       		.uleb128 0x1f
 2126 0b74 01       		.uleb128 0x1
 2127 0b75 50       		.byte	0x50
 2128 0b76 05       		.uleb128 0x5
 2129 0b77 F3       		.byte	0xf3
 2130 0b78 01       		.uleb128 0x1
ARM GAS  /tmp/ccnagQWr.s 			page 39


 2131 0b79 50       		.byte	0x50
 2132 0b7a 23       		.byte	0x23
 2133 0b7b 30       		.uleb128 0x30
 2134 0b7c 00       		.byte	0
 2135 0b7d 00       		.byte	0
 2136 0b7e 21       		.uleb128 0x21
 2137 0b7f 79060000 		.4byte	.LASF117
 2138 0b83 01       		.byte	0x1
 2139 0b84 78       		.byte	0x78
 2140 0b85 00000000 		.4byte	.LFB126
 2141 0b89 04000000 		.4byte	.LFE126-.LFB126
 2142 0b8d 01       		.uleb128 0x1
 2143 0b8e 9C       		.byte	0x9c
 2144 0b8f 9D0B0000 		.4byte	0xb9d
 2145 0b93 22       		.uleb128 0x22
 2146 0b94 04000000 		.4byte	.LVL24
 2147 0b98 C20F0000 		.4byte	0xfc2
 2148 0b9c 00       		.byte	0
 2149 0b9d 21       		.uleb128 0x21
 2150 0b9e 42010000 		.4byte	.LASF118
 2151 0ba2 01       		.byte	0x1
 2152 0ba3 8C       		.byte	0x8c
 2153 0ba4 00000000 		.4byte	.LFB127
 2154 0ba8 40000000 		.4byte	.LFE127-.LFB127
 2155 0bac 01       		.uleb128 0x1
 2156 0bad 9C       		.byte	0x9c
 2157 0bae 300C0000 		.4byte	0xc30
 2158 0bb2 1C       		.uleb128 0x1c
 2159 0bb3 73647000 		.ascii	"sdp\000"
 2160 0bb7 01       		.byte	0x1
 2161 0bb8 8C       		.byte	0x8c
 2162 0bb9 300C0000 		.4byte	0xc30
 2163 0bbd 3E030000 		.4byte	.LLST22
 2164 0bc1 1D       		.uleb128 0x1d
 2165 0bc2 D5020000 		.4byte	.LASF119
 2166 0bc6 01       		.byte	0x1
 2167 0bc7 8C       		.byte	0x8c
 2168 0bc8 14050000 		.4byte	0x514
 2169 0bcc 6A030000 		.4byte	.LLST23
 2170 0bd0 1D       		.uleb128 0x1d
 2171 0bd1 42060000 		.4byte	.LASF120
 2172 0bd5 01       		.byte	0x1
 2173 0bd6 8C       		.byte	0x8c
 2174 0bd7 14050000 		.4byte	0x514
 2175 0bdb 96030000 		.4byte	.LLST24
 2176 0bdf 23       		.uleb128 0x23
 2177 0be0 26000000 		.4byte	.LVL29
 2178 0be4 CA0F0000 		.4byte	0xfca
 2179 0be8 060C0000 		.4byte	0xc06
 2180 0bec 1F       		.uleb128 0x1f
 2181 0bed 01       		.uleb128 0x1
 2182 0bee 53       		.byte	0x53
 2183 0bef 03       		.uleb128 0x3
 2184 0bf0 F3       		.byte	0xf3
 2185 0bf1 01       		.uleb128 0x1
 2186 0bf2 51       		.byte	0x51
 2187 0bf3 1F       		.uleb128 0x1f
ARM GAS  /tmp/ccnagQWr.s 			page 40


 2188 0bf4 01       		.uleb128 0x1
 2189 0bf5 52       		.byte	0x52
 2190 0bf6 01       		.uleb128 0x1
 2191 0bf7 40       		.byte	0x40
 2192 0bf8 1F       		.uleb128 0x1f
 2193 0bf9 01       		.uleb128 0x1
 2194 0bfa 51       		.byte	0x51
 2195 0bfb 03       		.uleb128 0x3
 2196 0bfc 74       		.byte	0x74
 2197 0bfd D400     		.sleb128 84
 2198 0bff 1F       		.uleb128 0x1f
 2199 0c00 01       		.uleb128 0x1
 2200 0c01 50       		.byte	0x50
 2201 0c02 02       		.uleb128 0x2
 2202 0c03 74       		.byte	0x74
 2203 0c04 0C       		.sleb128 12
 2204 0c05 00       		.byte	0
 2205 0c06 24       		.uleb128 0x24
 2206 0c07 38000000 		.4byte	.LVL30
 2207 0c0b F00F0000 		.4byte	0xff0
 2208 0c0f 1F       		.uleb128 0x1f
 2209 0c10 01       		.uleb128 0x1
 2210 0c11 53       		.byte	0x53
 2211 0c12 02       		.uleb128 0x2
 2212 0c13 75       		.byte	0x75
 2213 0c14 00       		.sleb128 0
 2214 0c15 1F       		.uleb128 0x1f
 2215 0c16 01       		.uleb128 0x1
 2216 0c17 52       		.byte	0x52
 2217 0c18 01       		.uleb128 0x1
 2218 0c19 40       		.byte	0x40
 2219 0c1a 1F       		.uleb128 0x1f
 2220 0c1b 01       		.uleb128 0x1
 2221 0c1c 51       		.byte	0x51
 2222 0c1d 03       		.uleb128 0x3
 2223 0c1e 74       		.byte	0x74
 2224 0c1f E400     		.sleb128 100
 2225 0c21 1F       		.uleb128 0x1f
 2226 0c22 01       		.uleb128 0x1
 2227 0c23 50       		.byte	0x50
 2228 0c24 02       		.uleb128 0x2
 2229 0c25 74       		.byte	0x74
 2230 0c26 30       		.sleb128 48
 2231 0c27 1F       		.uleb128 0x1f
 2232 0c28 02       		.uleb128 0x2
 2233 0c29 7D       		.byte	0x7d
 2234 0c2a 00       		.sleb128 0
 2235 0c2b 02       		.uleb128 0x2
 2236 0c2c 74       		.byte	0x74
 2237 0c2d 00       		.sleb128 0
 2238 0c2e 00       		.byte	0
 2239 0c2f 00       		.byte	0
 2240 0c30 09       		.uleb128 0x9
 2241 0c31 04       		.byte	0x4
 2242 0c32 30070000 		.4byte	0x730
 2243 0c36 21       		.uleb128 0x21
 2244 0c37 A5050000 		.4byte	.LASF121
ARM GAS  /tmp/ccnagQWr.s 			page 41


 2245 0c3b 01       		.byte	0x1
 2246 0c3c 9F       		.byte	0x9f
 2247 0c3d 00000000 		.4byte	.LFB128
 2248 0c41 48000000 		.4byte	.LFE128-.LFB128
 2249 0c45 01       		.uleb128 0x1
 2250 0c46 9C       		.byte	0x9c
 2251 0c47 F60C0000 		.4byte	0xcf6
 2252 0c4b 1C       		.uleb128 0x1c
 2253 0c4c 73647000 		.ascii	"sdp\000"
 2254 0c50 01       		.byte	0x1
 2255 0c51 9F       		.byte	0x9f
 2256 0c52 300C0000 		.4byte	0xc30
 2257 0c56 C2030000 		.4byte	.LLST25
 2258 0c5a 1D       		.uleb128 0x1d
 2259 0c5b 9E050000 		.4byte	.LASF122
 2260 0c5f 01       		.byte	0x1
 2261 0c60 9F       		.byte	0x9f
 2262 0c61 F60C0000 		.4byte	0xcf6
 2263 0c65 F6030000 		.4byte	.LLST26
 2264 0c69 25       		.uleb128 0x25
 2265 0c6a 08000000 		.4byte	.LBB2
 2266 0c6e 06000000 		.4byte	.LBE2-.LBB2
 2267 0c72 840C0000 		.4byte	0xc84
 2268 0c76 26       		.uleb128 0x26
 2269 0c77 746D7000 		.ascii	"tmp\000"
 2270 0c7b 01       		.byte	0x1
 2271 0c7c A3       		.byte	0xa3
 2272 0c7d CE000000 		.4byte	0xce
 2273 0c81 01       		.uleb128 0x1
 2274 0c82 53       		.byte	0x53
 2275 0c83 00       		.byte	0
 2276 0c84 25       		.uleb128 0x25
 2277 0c85 30000000 		.4byte	.LBB3
 2278 0c89 08000000 		.4byte	.LBE3-.LBB3
 2279 0c8d 9F0C0000 		.4byte	0xc9f
 2280 0c91 26       		.uleb128 0x26
 2281 0c92 746D7000 		.ascii	"tmp\000"
 2282 0c96 01       		.byte	0x1
 2283 0c97 A9       		.byte	0xa9
 2284 0c98 CE000000 		.4byte	0xce
 2285 0c9c 01       		.uleb128 0x1
 2286 0c9d 53       		.byte	0x53
 2287 0c9e 00       		.byte	0
 2288 0c9f 27       		.uleb128 0x27
 2289 0ca0 12000000 		.4byte	.LVL34
 2290 0ca4 16100000 		.4byte	0x1016
 2291 0ca8 23       		.uleb128 0x23
 2292 0ca9 20000000 		.4byte	.LVL35
 2293 0cad 1D100000 		.4byte	0x101d
 2294 0cb1 BF0C0000 		.4byte	0xcbf
 2295 0cb5 1F       		.uleb128 0x1f
 2296 0cb6 01       		.uleb128 0x1
 2297 0cb7 50       		.byte	0x50
 2298 0cb8 05       		.uleb128 0x5
 2299 0cb9 03       		.byte	0x3
 2300 0cba 0C000000 		.4byte	.LC1
 2301 0cbe 00       		.byte	0
ARM GAS  /tmp/ccnagQWr.s 			page 42


 2302 0cbf 23       		.uleb128 0x23
 2303 0cc0 28000000 		.4byte	.LVL36
 2304 0cc4 2E100000 		.4byte	0x102e
 2305 0cc8 D90C0000 		.4byte	0xcd9
 2306 0ccc 1F       		.uleb128 0x1f
 2307 0ccd 01       		.uleb128 0x1
 2308 0cce 51       		.byte	0x51
 2309 0ccf 02       		.uleb128 0x2
 2310 0cd0 75       		.byte	0x75
 2311 0cd1 00       		.sleb128 0
 2312 0cd2 1F       		.uleb128 0x1f
 2313 0cd3 01       		.uleb128 0x1
 2314 0cd4 50       		.byte	0x50
 2315 0cd5 02       		.uleb128 0x2
 2316 0cd6 74       		.byte	0x74
 2317 0cd7 00       		.sleb128 0
 2318 0cd8 00       		.byte	0
 2319 0cd9 27       		.uleb128 0x27
 2320 0cda 30000000 		.4byte	.LVL37
 2321 0cde 45100000 		.4byte	0x1045
 2322 0ce2 24       		.uleb128 0x24
 2323 0ce3 3E000000 		.4byte	.LVL40
 2324 0ce7 1D100000 		.4byte	0x101d
 2325 0ceb 1F       		.uleb128 0x1f
 2326 0cec 01       		.uleb128 0x1
 2327 0ced 50       		.byte	0x50
 2328 0cee 05       		.uleb128 0x5
 2329 0cef 03       		.byte	0x3
 2330 0cf0 00000000 		.4byte	.LC0
 2331 0cf4 00       		.byte	0
 2332 0cf5 00       		.byte	0
 2333 0cf6 09       		.uleb128 0x9
 2334 0cf7 04       		.byte	0x4
 2335 0cf8 FC0C0000 		.4byte	0xcfc
 2336 0cfc 10       		.uleb128 0x10
 2337 0cfd DF070000 		.4byte	0x7df
 2338 0d01 21       		.uleb128 0x21
 2339 0d02 03040000 		.4byte	.LASF123
 2340 0d06 01       		.byte	0x1
 2341 0d07 B5       		.byte	0xb5
 2342 0d08 00000000 		.4byte	.LFB129
 2343 0d0c 58000000 		.4byte	.LFE129-.LFB129
 2344 0d10 01       		.uleb128 0x1
 2345 0d11 9C       		.byte	0x9c
 2346 0d12 DD0D0000 		.4byte	0xddd
 2347 0d16 1C       		.uleb128 0x1c
 2348 0d17 73647000 		.ascii	"sdp\000"
 2349 0d1b 01       		.byte	0x1
 2350 0d1c B5       		.byte	0xb5
 2351 0d1d 300C0000 		.4byte	0xc30
 2352 0d21 2A040000 		.4byte	.LLST27
 2353 0d25 25       		.uleb128 0x25
 2354 0d26 06000000 		.4byte	.LBB4
 2355 0d2a 06000000 		.4byte	.LBE4-.LBB4
 2356 0d2e 400D0000 		.4byte	0xd40
 2357 0d32 26       		.uleb128 0x26
 2358 0d33 746D7000 		.ascii	"tmp\000"
ARM GAS  /tmp/ccnagQWr.s 			page 43


 2359 0d37 01       		.byte	0x1
 2360 0d38 B9       		.byte	0xb9
 2361 0d39 CE000000 		.4byte	0xce
 2362 0d3d 01       		.uleb128 0x1
 2363 0d3e 53       		.byte	0x53
 2364 0d3f 00       		.byte	0
 2365 0d40 25       		.uleb128 0x25
 2366 0d41 40000000 		.4byte	.LBB5
 2367 0d45 08000000 		.4byte	.LBE5-.LBB5
 2368 0d49 5B0D0000 		.4byte	0xd5b
 2369 0d4d 26       		.uleb128 0x26
 2370 0d4e 746D7000 		.ascii	"tmp\000"
 2371 0d52 01       		.byte	0x1
 2372 0d53 C2       		.byte	0xc2
 2373 0d54 CE000000 		.4byte	0xce
 2374 0d58 01       		.uleb128 0x1
 2375 0d59 53       		.byte	0x53
 2376 0d5a 00       		.byte	0
 2377 0d5b 27       		.uleb128 0x27
 2378 0d5c 10000000 		.4byte	.LVL43
 2379 0d60 16100000 		.4byte	0x1016
 2380 0d64 23       		.uleb128 0x23
 2381 0d65 1E000000 		.4byte	.LVL44
 2382 0d69 1D100000 		.4byte	0x101d
 2383 0d6d 7B0D0000 		.4byte	0xd7b
 2384 0d71 1F       		.uleb128 0x1f
 2385 0d72 01       		.uleb128 0x1
 2386 0d73 50       		.byte	0x50
 2387 0d74 05       		.uleb128 0x5
 2388 0d75 03       		.byte	0x3
 2389 0d76 28000000 		.4byte	.LC3
 2390 0d7a 00       		.byte	0
 2391 0d7b 23       		.uleb128 0x23
 2392 0d7c 24000000 		.4byte	.LVL45
 2393 0d80 4C100000 		.4byte	0x104c
 2394 0d84 8F0D0000 		.4byte	0xd8f
 2395 0d88 1F       		.uleb128 0x1f
 2396 0d89 01       		.uleb128 0x1
 2397 0d8a 50       		.byte	0x50
 2398 0d8b 02       		.uleb128 0x2
 2399 0d8c 74       		.byte	0x74
 2400 0d8d 00       		.sleb128 0
 2401 0d8e 00       		.byte	0
 2402 0d8f 23       		.uleb128 0x23
 2403 0d90 30000000 		.4byte	.LVL46
 2404 0d94 5E100000 		.4byte	0x105e
 2405 0d98 A30D0000 		.4byte	0xda3
 2406 0d9c 1F       		.uleb128 0x1f
 2407 0d9d 01       		.uleb128 0x1
 2408 0d9e 50       		.byte	0x50
 2409 0d9f 02       		.uleb128 0x2
 2410 0da0 74       		.byte	0x74
 2411 0da1 30       		.sleb128 48
 2412 0da2 00       		.byte	0
 2413 0da3 23       		.uleb128 0x23
 2414 0da4 38000000 		.4byte	.LVL47
 2415 0da8 70100000 		.4byte	0x1070
ARM GAS  /tmp/ccnagQWr.s 			page 44


 2416 0dac B70D0000 		.4byte	0xdb7
 2417 0db0 1F       		.uleb128 0x1f
 2418 0db1 01       		.uleb128 0x1
 2419 0db2 50       		.byte	0x50
 2420 0db3 02       		.uleb128 0x2
 2421 0db4 74       		.byte	0x74
 2422 0db5 0C       		.sleb128 12
 2423 0db6 00       		.byte	0
 2424 0db7 27       		.uleb128 0x27
 2425 0db8 3C000000 		.4byte	.LVL48
 2426 0dbc 82100000 		.4byte	0x1082
 2427 0dc0 27       		.uleb128 0x27
 2428 0dc1 40000000 		.4byte	.LVL49
 2429 0dc5 45100000 		.4byte	0x1045
 2430 0dc9 24       		.uleb128 0x24
 2431 0dca 4E000000 		.4byte	.LVL52
 2432 0dce 1D100000 		.4byte	0x101d
 2433 0dd2 1F       		.uleb128 0x1f
 2434 0dd3 01       		.uleb128 0x1
 2435 0dd4 50       		.byte	0x50
 2436 0dd5 05       		.uleb128 0x5
 2437 0dd6 03       		.byte	0x3
 2438 0dd7 1C000000 		.4byte	.LC2
 2439 0ddb 00       		.byte	0
 2440 0ddc 00       		.byte	0
 2441 0ddd 21       		.uleb128 0x21
 2442 0dde 8E050000 		.4byte	.LASF124
 2443 0de2 01       		.byte	0x1
 2444 0de3 D5       		.byte	0xd5
 2445 0de4 00000000 		.4byte	.LFB130
 2446 0de8 50000000 		.4byte	.LFE130-.LFB130
 2447 0dec 01       		.uleb128 0x1
 2448 0ded 9C       		.byte	0x9c
 2449 0dee 950E0000 		.4byte	0xe95
 2450 0df2 1C       		.uleb128 0x1c
 2451 0df3 73647000 		.ascii	"sdp\000"
 2452 0df7 01       		.byte	0x1
 2453 0df8 D5       		.byte	0xd5
 2454 0df9 300C0000 		.4byte	0xc30
 2455 0dfd 5E040000 		.4byte	.LLST28
 2456 0e01 1C       		.uleb128 0x1c
 2457 0e02 6200     		.ascii	"b\000"
 2458 0e04 01       		.byte	0x1
 2459 0e05 D5       		.byte	0xd5
 2460 0e06 AD000000 		.4byte	0xad
 2461 0e0a A2040000 		.4byte	.LLST29
 2462 0e0e 27       		.uleb128 0x27
 2463 0e0f 0A000000 		.4byte	.LVL54
 2464 0e13 89100000 		.4byte	0x1089
 2465 0e17 23       		.uleb128 0x23
 2466 0e18 1A000000 		.4byte	.LVL55
 2467 0e1c 90100000 		.4byte	0x1090
 2468 0e20 310E0000 		.4byte	0xe31
 2469 0e24 1F       		.uleb128 0x1f
 2470 0e25 01       		.uleb128 0x1
 2471 0e26 51       		.byte	0x51
 2472 0e27 02       		.uleb128 0x2
ARM GAS  /tmp/ccnagQWr.s 			page 45


 2473 0e28 75       		.byte	0x75
 2474 0e29 00       		.sleb128 0
 2475 0e2a 1F       		.uleb128 0x1f
 2476 0e2b 01       		.uleb128 0x1
 2477 0e2c 50       		.byte	0x50
 2478 0e2d 02       		.uleb128 0x2
 2479 0e2e 74       		.byte	0x74
 2480 0e2f 0C       		.sleb128 12
 2481 0e30 00       		.byte	0
 2482 0e31 23       		.uleb128 0x23
 2483 0e32 28000000 		.4byte	.LVL57
 2484 0e36 AB100000 		.4byte	0x10ab
 2485 0e3a 4A0E0000 		.4byte	0xe4a
 2486 0e3e 1F       		.uleb128 0x1f
 2487 0e3f 01       		.uleb128 0x1
 2488 0e40 51       		.byte	0x51
 2489 0e41 01       		.uleb128 0x1
 2490 0e42 34       		.byte	0x34
 2491 0e43 1F       		.uleb128 0x1f
 2492 0e44 01       		.uleb128 0x1
 2493 0e45 50       		.byte	0x50
 2494 0e46 02       		.uleb128 0x2
 2495 0e47 74       		.byte	0x74
 2496 0e48 04       		.sleb128 4
 2497 0e49 00       		.byte	0
 2498 0e4a 23       		.uleb128 0x23
 2499 0e4b 32000000 		.4byte	.LVL58
 2500 0e4f 90100000 		.4byte	0x1090
 2501 0e53 640E0000 		.4byte	0xe64
 2502 0e57 1F       		.uleb128 0x1f
 2503 0e58 01       		.uleb128 0x1
 2504 0e59 51       		.byte	0x51
 2505 0e5a 02       		.uleb128 0x2
 2506 0e5b 75       		.byte	0x75
 2507 0e5c 00       		.sleb128 0
 2508 0e5d 1F       		.uleb128 0x1f
 2509 0e5e 01       		.uleb128 0x1
 2510 0e5f 50       		.byte	0x50
 2511 0e60 02       		.uleb128 0x2
 2512 0e61 74       		.byte	0x74
 2513 0e62 0C       		.sleb128 12
 2514 0e63 00       		.byte	0
 2515 0e64 28       		.uleb128 0x28
 2516 0e65 42000000 		.4byte	.LVL60
 2517 0e69 AB100000 		.4byte	0x10ab
 2518 0e6d 810E0000 		.4byte	0xe81
 2519 0e71 1F       		.uleb128 0x1f
 2520 0e72 01       		.uleb128 0x1
 2521 0e73 51       		.byte	0x51
 2522 0e74 02       		.uleb128 0x2
 2523 0e75 08       		.byte	0x8
 2524 0e76 80       		.byte	0x80
 2525 0e77 1F       		.uleb128 0x1f
 2526 0e78 01       		.uleb128 0x1
 2527 0e79 50       		.byte	0x50
 2528 0e7a 05       		.uleb128 0x5
 2529 0e7b F3       		.byte	0xf3
ARM GAS  /tmp/ccnagQWr.s 			page 46


 2530 0e7c 01       		.uleb128 0x1
 2531 0e7d 50       		.byte	0x50
 2532 0e7e 23       		.byte	0x23
 2533 0e7f 04       		.uleb128 0x4
 2534 0e80 00       		.byte	0
 2535 0e81 24       		.uleb128 0x24
 2536 0e82 48000000 		.4byte	.LVL61
 2537 0e86 1D100000 		.4byte	0x101d
 2538 0e8a 1F       		.uleb128 0x1f
 2539 0e8b 01       		.uleb128 0x1
 2540 0e8c 50       		.byte	0x50
 2541 0e8d 05       		.uleb128 0x5
 2542 0e8e 03       		.byte	0x3
 2543 0e8f 38000000 		.4byte	.LC4
 2544 0e93 00       		.byte	0
 2545 0e94 00       		.byte	0
 2546 0e95 29       		.uleb128 0x29
 2547 0e96 2B060000 		.4byte	.LASF147
 2548 0e9a 01       		.byte	0x1
 2549 0e9b EF       		.byte	0xef
 2550 0e9c 2D010000 		.4byte	0x12d
 2551 0ea0 00000000 		.4byte	.LFB131
 2552 0ea4 34000000 		.4byte	.LFE131-.LFB131
 2553 0ea8 01       		.uleb128 0x1
 2554 0ea9 9C       		.byte	0x9c
 2555 0eaa 140F0000 		.4byte	0xf14
 2556 0eae 1C       		.uleb128 0x1c
 2557 0eaf 73647000 		.ascii	"sdp\000"
 2558 0eb3 01       		.byte	0x1
 2559 0eb4 EF       		.byte	0xef
 2560 0eb5 300C0000 		.4byte	0xc30
 2561 0eb9 C3040000 		.4byte	.LLST30
 2562 0ebd 2A       		.uleb128 0x2a
 2563 0ebe 6200     		.ascii	"b\000"
 2564 0ec0 01       		.byte	0x1
 2565 0ec1 F0       		.byte	0xf0
 2566 0ec2 2D010000 		.4byte	0x12d
 2567 0ec6 E1040000 		.4byte	.LLST31
 2568 0eca 27       		.uleb128 0x27
 2569 0ecb 08000000 		.4byte	.LVL63
 2570 0ecf 89100000 		.4byte	0x1089
 2571 0ed3 23       		.uleb128 0x23
 2572 0ed4 12000000 		.4byte	.LVL64
 2573 0ed8 C7100000 		.4byte	0x10c7
 2574 0edc E70E0000 		.4byte	0xee7
 2575 0ee0 1F       		.uleb128 0x1f
 2576 0ee1 01       		.uleb128 0x1
 2577 0ee2 50       		.byte	0x50
 2578 0ee3 02       		.uleb128 0x2
 2579 0ee4 74       		.byte	0x74
 2580 0ee5 30       		.sleb128 48
 2581 0ee6 00       		.byte	0
 2582 0ee7 23       		.uleb128 0x23
 2583 0ee8 22000000 		.4byte	.LVL67
 2584 0eec AB100000 		.4byte	0x10ab
 2585 0ef0 000F0000 		.4byte	0xf00
 2586 0ef4 1F       		.uleb128 0x1f
ARM GAS  /tmp/ccnagQWr.s 			page 47


 2587 0ef5 01       		.uleb128 0x1
 2588 0ef6 51       		.byte	0x51
 2589 0ef7 01       		.uleb128 0x1
 2590 0ef8 38       		.byte	0x38
 2591 0ef9 1F       		.uleb128 0x1f
 2592 0efa 01       		.uleb128 0x1
 2593 0efb 50       		.byte	0x50
 2594 0efc 02       		.uleb128 0x2
 2595 0efd 74       		.byte	0x74
 2596 0efe 04       		.sleb128 4
 2597 0eff 00       		.byte	0
 2598 0f00 24       		.uleb128 0x24
 2599 0f01 2C000000 		.4byte	.LVL69
 2600 0f05 1D100000 		.4byte	0x101d
 2601 0f09 1F       		.uleb128 0x1f
 2602 0f0a 01       		.uleb128 0x1
 2603 0f0b 50       		.byte	0x50
 2604 0f0c 05       		.uleb128 0x5
 2605 0f0d 03       		.byte	0x3
 2606 0f0e 4C000000 		.4byte	.LC5
 2607 0f12 00       		.byte	0
 2608 0f13 00       		.byte	0
 2609 0f14 26       		.uleb128 0x26
 2610 0f15 766D7400 		.ascii	"vmt\000"
 2611 0f19 01       		.byte	0x1
 2612 0f1a 68       		.byte	0x68
 2613 0f1b 5D080000 		.4byte	0x85d
 2614 0f1f 05       		.uleb128 0x5
 2615 0f20 03       		.byte	0x3
 2616 0f21 00000000 		.4byte	vmt
 2617 0f25 2B       		.uleb128 0x2b
 2618 0f26 35010000 		.4byte	.LASF148
 2619 0f2a 11       		.byte	0x11
 2620 0f2b 9806     		.2byte	0x698
 2621 0f2d BA050000 		.4byte	0x5ba
 2622 0f31 2C       		.uleb128 0x2c
 2623 0f32 3C000000 		.4byte	.LASF125
 2624 0f36 0B       		.byte	0xb
 2625 0f37 6701     		.2byte	0x167
 2626 0f39 2C000000 		.4byte	0x2c
 2627 0f3d 560F0000 		.4byte	0xf56
 2628 0f41 12       		.uleb128 0x12
 2629 0f42 560F0000 		.4byte	0xf56
 2630 0f46 12       		.uleb128 0x12
 2631 0f47 36050000 		.4byte	0x536
 2632 0f4b 12       		.uleb128 0x12
 2633 0f4c 2C000000 		.4byte	0x2c
 2634 0f50 12       		.uleb128 0x12
 2635 0f51 4E010000 		.4byte	0x14e
 2636 0f55 00       		.byte	0
 2637 0f56 09       		.uleb128 0x9
 2638 0f57 04       		.byte	0x4
 2639 0f58 3C050000 		.4byte	0x53c
 2640 0f5c 2C       		.uleb128 0x2c
 2641 0f5d 9F030000 		.4byte	.LASF126
 2642 0f61 0B       		.byte	0xb
 2643 0f62 6F01     		.2byte	0x16f
ARM GAS  /tmp/ccnagQWr.s 			page 48


 2644 0f64 2C000000 		.4byte	0x2c
 2645 0f68 810F0000 		.4byte	0xf81
 2646 0f6c 12       		.uleb128 0x12
 2647 0f6d 810F0000 		.4byte	0xf81
 2648 0f71 12       		.uleb128 0x12
 2649 0f72 6B050000 		.4byte	0x56b
 2650 0f76 12       		.uleb128 0x12
 2651 0f77 2C000000 		.4byte	0x2c
 2652 0f7b 12       		.uleb128 0x12
 2653 0f7c 4E010000 		.4byte	0x14e
 2654 0f80 00       		.byte	0
 2655 0f81 09       		.uleb128 0x9
 2656 0f82 04       		.byte	0x4
 2657 0f83 47050000 		.4byte	0x547
 2658 0f87 2C       		.uleb128 0x2c
 2659 0f88 BE060000 		.4byte	.LASF127
 2660 0f8c 0B       		.byte	0xb
 2661 0f8d 6601     		.2byte	0x166
 2662 0f8f 2D010000 		.4byte	0x12d
 2663 0f93 A20F0000 		.4byte	0xfa2
 2664 0f97 12       		.uleb128 0x12
 2665 0f98 560F0000 		.4byte	0xf56
 2666 0f9c 12       		.uleb128 0x12
 2667 0f9d 4E010000 		.4byte	0x14e
 2668 0fa1 00       		.byte	0
 2669 0fa2 2C       		.uleb128 0x2c
 2670 0fa3 00000000 		.4byte	.LASF128
 2671 0fa7 0B       		.byte	0xb
 2672 0fa8 6D01     		.2byte	0x16d
 2673 0faa 2D010000 		.4byte	0x12d
 2674 0fae C20F0000 		.4byte	0xfc2
 2675 0fb2 12       		.uleb128 0x12
 2676 0fb3 810F0000 		.4byte	0xf81
 2677 0fb7 12       		.uleb128 0x12
 2678 0fb8 AD000000 		.4byte	0xad
 2679 0fbc 12       		.uleb128 0x12
 2680 0fbd 4E010000 		.4byte	0x14e
 2681 0fc1 00       		.byte	0
 2682 0fc2 2D       		.uleb128 0x2d
 2683 0fc3 EF020000 		.4byte	.LASF131
 2684 0fc7 0E       		.byte	0xe
 2685 0fc8 2401     		.2byte	0x124
 2686 0fca 2E       		.uleb128 0x2e
 2687 0fcb 80060000 		.4byte	.LASF129
 2688 0fcf 0B       		.byte	0xb
 2689 0fd0 6201     		.2byte	0x162
 2690 0fd2 F00F0000 		.4byte	0xff0
 2691 0fd6 12       		.uleb128 0x12
 2692 0fd7 560F0000 		.4byte	0xf56
 2693 0fdb 12       		.uleb128 0x12
 2694 0fdc 36050000 		.4byte	0x536
 2695 0fe0 12       		.uleb128 0x12
 2696 0fe1 2C000000 		.4byte	0x2c
 2697 0fe5 12       		.uleb128 0x12
 2698 0fe6 14050000 		.4byte	0x514
 2699 0fea 12       		.uleb128 0x12
 2700 0feb CA020000 		.4byte	0x2ca
ARM GAS  /tmp/ccnagQWr.s 			page 49


 2701 0fef 00       		.byte	0
 2702 0ff0 2E       		.uleb128 0x2e
 2703 0ff1 A5010000 		.4byte	.LASF130
 2704 0ff5 0B       		.byte	0xb
 2705 0ff6 6A01     		.2byte	0x16a
 2706 0ff8 16100000 		.4byte	0x1016
 2707 0ffc 12       		.uleb128 0x12
 2708 0ffd 810F0000 		.4byte	0xf81
 2709 1001 12       		.uleb128 0x12
 2710 1002 36050000 		.4byte	0x536
 2711 1006 12       		.uleb128 0x12
 2712 1007 2C000000 		.4byte	0x2c
 2713 100b 12       		.uleb128 0x12
 2714 100c 14050000 		.4byte	0x514
 2715 1010 12       		.uleb128 0x12
 2716 1011 CA020000 		.4byte	0x2ca
 2717 1015 00       		.byte	0
 2718 1016 2F       		.uleb128 0x2f
 2719 1017 0F040000 		.4byte	.LASF132
 2720 101b 0F       		.byte	0xf
 2721 101c E7       		.byte	0xe7
 2722 101d 30       		.uleb128 0x30
 2723 101e 2A010000 		.4byte	.LASF133
 2724 1022 0F       		.byte	0xf
 2725 1023 F6       		.byte	0xf6
 2726 1024 2E100000 		.4byte	0x102e
 2727 1028 12       		.uleb128 0x12
 2728 1029 69040000 		.4byte	0x469
 2729 102d 00       		.byte	0
 2730 102e 2E       		.uleb128 0x2e
 2731 102f BE040000 		.4byte	.LASF134
 2732 1033 0E       		.byte	0xe
 2733 1034 2501     		.2byte	0x125
 2734 1036 45100000 		.4byte	0x1045
 2735 103a 12       		.uleb128 0x12
 2736 103b 300C0000 		.4byte	0xc30
 2737 103f 12       		.uleb128 0x12
 2738 1040 F60C0000 		.4byte	0xcf6
 2739 1044 00       		.byte	0
 2740 1045 2F       		.uleb128 0x2f
 2741 1046 1E040000 		.4byte	.LASF135
 2742 104a 0F       		.byte	0xf
 2743 104b E8       		.byte	0xe8
 2744 104c 2E       		.uleb128 0x2e
 2745 104d 65060000 		.4byte	.LASF136
 2746 1051 0E       		.byte	0xe
 2747 1052 2601     		.2byte	0x126
 2748 1054 5E100000 		.4byte	0x105e
 2749 1058 12       		.uleb128 0x12
 2750 1059 300C0000 		.4byte	0xc30
 2751 105d 00       		.byte	0
 2752 105e 2E       		.uleb128 0x2e
 2753 105f DE050000 		.4byte	.LASF137
 2754 1063 0B       		.byte	0xb
 2755 1064 6C01     		.2byte	0x16c
 2756 1066 70100000 		.4byte	0x1070
 2757 106a 12       		.uleb128 0x12
ARM GAS  /tmp/ccnagQWr.s 			page 50


 2758 106b 810F0000 		.4byte	0xf81
 2759 106f 00       		.byte	0
 2760 1070 2E       		.uleb128 0x2e
 2761 1071 63000000 		.4byte	.LASF138
 2762 1075 0B       		.byte	0xb
 2763 1076 6401     		.2byte	0x164
 2764 1078 82100000 		.4byte	0x1082
 2765 107c 12       		.uleb128 0x12
 2766 107d 560F0000 		.4byte	0xf56
 2767 1081 00       		.byte	0
 2768 1082 2F       		.uleb128 0x2f
 2769 1083 05020000 		.4byte	.LASF139
 2770 1087 10       		.byte	0x10
 2771 1088 9C       		.byte	0x9c
 2772 1089 2F       		.uleb128 0x2f
 2773 108a 26030000 		.4byte	.LASF140
 2774 108e 0F       		.byte	0xf
 2775 108f ED       		.byte	0xed
 2776 1090 2C       		.uleb128 0x2c
 2777 1091 8D020000 		.4byte	.LASF141
 2778 1095 0B       		.byte	0xb
 2779 1096 6501     		.2byte	0x165
 2780 1098 2D010000 		.4byte	0x12d
 2781 109c AB100000 		.4byte	0x10ab
 2782 10a0 12       		.uleb128 0x12
 2783 10a1 560F0000 		.4byte	0xf56
 2784 10a5 12       		.uleb128 0x12
 2785 10a6 AD000000 		.4byte	0xad
 2786 10aa 00       		.byte	0
 2787 10ab 30       		.uleb128 0x30
 2788 10ac E8010000 		.4byte	.LASF142
 2789 10b0 0A       		.byte	0xa
 2790 10b1 BA       		.byte	0xba
 2791 10b2 C1100000 		.4byte	0x10c1
 2792 10b6 12       		.uleb128 0x12
 2793 10b7 C1100000 		.4byte	0x10c1
 2794 10bb 12       		.uleb128 0x12
 2795 10bc 43010000 		.4byte	0x143
 2796 10c0 00       		.byte	0
 2797 10c1 09       		.uleb128 0x9
 2798 10c2 04       		.byte	0x4
 2799 10c3 29040000 		.4byte	0x429
 2800 10c7 31       		.uleb128 0x31
 2801 10c8 C0010000 		.4byte	.LASF143
 2802 10cc 0B       		.byte	0xb
 2803 10cd 6E01     		.2byte	0x16e
 2804 10cf 2D010000 		.4byte	0x12d
 2805 10d3 12       		.uleb128 0x12
 2806 10d4 810F0000 		.4byte	0xf81
 2807 10d8 00       		.byte	0
 2808 10d9 00       		.byte	0
 2809              		.section	.debug_abbrev,"",%progbits
 2810              	.Ldebug_abbrev0:
 2811 0000 01       		.uleb128 0x1
 2812 0001 11       		.uleb128 0x11
 2813 0002 01       		.byte	0x1
 2814 0003 25       		.uleb128 0x25
ARM GAS  /tmp/ccnagQWr.s 			page 51


 2815 0004 0E       		.uleb128 0xe
 2816 0005 13       		.uleb128 0x13
 2817 0006 0B       		.uleb128 0xb
 2818 0007 03       		.uleb128 0x3
 2819 0008 0E       		.uleb128 0xe
 2820 0009 1B       		.uleb128 0x1b
 2821 000a 0E       		.uleb128 0xe
 2822 000b 55       		.uleb128 0x55
 2823 000c 17       		.uleb128 0x17
 2824 000d 11       		.uleb128 0x11
 2825 000e 01       		.uleb128 0x1
 2826 000f 10       		.uleb128 0x10
 2827 0010 17       		.uleb128 0x17
 2828 0011 00       		.byte	0
 2829 0012 00       		.byte	0
 2830 0013 02       		.uleb128 0x2
 2831 0014 24       		.uleb128 0x24
 2832 0015 00       		.byte	0
 2833 0016 0B       		.uleb128 0xb
 2834 0017 0B       		.uleb128 0xb
 2835 0018 3E       		.uleb128 0x3e
 2836 0019 0B       		.uleb128 0xb
 2837 001a 03       		.uleb128 0x3
 2838 001b 08       		.uleb128 0x8
 2839 001c 00       		.byte	0
 2840 001d 00       		.byte	0
 2841 001e 03       		.uleb128 0x3
 2842 001f 16       		.uleb128 0x16
 2843 0020 00       		.byte	0
 2844 0021 03       		.uleb128 0x3
 2845 0022 0E       		.uleb128 0xe
 2846 0023 3A       		.uleb128 0x3a
 2847 0024 0B       		.uleb128 0xb
 2848 0025 3B       		.uleb128 0x3b
 2849 0026 0B       		.uleb128 0xb
 2850 0027 49       		.uleb128 0x49
 2851 0028 13       		.uleb128 0x13
 2852 0029 00       		.byte	0
 2853 002a 00       		.byte	0
 2854 002b 04       		.uleb128 0x4
 2855 002c 24       		.uleb128 0x24
 2856 002d 00       		.byte	0
 2857 002e 0B       		.uleb128 0xb
 2858 002f 0B       		.uleb128 0xb
 2859 0030 3E       		.uleb128 0x3e
 2860 0031 0B       		.uleb128 0xb
 2861 0032 03       		.uleb128 0x3
 2862 0033 0E       		.uleb128 0xe
 2863 0034 00       		.byte	0
 2864 0035 00       		.byte	0
 2865 0036 05       		.uleb128 0x5
 2866 0037 13       		.uleb128 0x13
 2867 0038 01       		.byte	0x1
 2868 0039 03       		.uleb128 0x3
 2869 003a 0E       		.uleb128 0xe
 2870 003b 0B       		.uleb128 0xb
 2871 003c 0B       		.uleb128 0xb
ARM GAS  /tmp/ccnagQWr.s 			page 52


 2872 003d 3A       		.uleb128 0x3a
 2873 003e 0B       		.uleb128 0xb
 2874 003f 3B       		.uleb128 0x3b
 2875 0040 0B       		.uleb128 0xb
 2876 0041 01       		.uleb128 0x1
 2877 0042 13       		.uleb128 0x13
 2878 0043 00       		.byte	0
 2879 0044 00       		.byte	0
 2880 0045 06       		.uleb128 0x6
 2881 0046 0D       		.uleb128 0xd
 2882 0047 00       		.byte	0
 2883 0048 03       		.uleb128 0x3
 2884 0049 0E       		.uleb128 0xe
 2885 004a 3A       		.uleb128 0x3a
 2886 004b 0B       		.uleb128 0xb
 2887 004c 3B       		.uleb128 0x3b
 2888 004d 0B       		.uleb128 0xb
 2889 004e 49       		.uleb128 0x49
 2890 004f 13       		.uleb128 0x13
 2891 0050 38       		.uleb128 0x38
 2892 0051 0B       		.uleb128 0xb
 2893 0052 00       		.byte	0
 2894 0053 00       		.byte	0
 2895 0054 07       		.uleb128 0x7
 2896 0055 0D       		.uleb128 0xd
 2897 0056 00       		.byte	0
 2898 0057 03       		.uleb128 0x3
 2899 0058 08       		.uleb128 0x8
 2900 0059 3A       		.uleb128 0x3a
 2901 005a 0B       		.uleb128 0xb
 2902 005b 3B       		.uleb128 0x3b
 2903 005c 0B       		.uleb128 0xb
 2904 005d 49       		.uleb128 0x49
 2905 005e 13       		.uleb128 0x13
 2906 005f 38       		.uleb128 0x38
 2907 0060 0B       		.uleb128 0xb
 2908 0061 00       		.byte	0
 2909 0062 00       		.byte	0
 2910 0063 08       		.uleb128 0x8
 2911 0064 13       		.uleb128 0x13
 2912 0065 01       		.byte	0x1
 2913 0066 0B       		.uleb128 0xb
 2914 0067 0B       		.uleb128 0xb
 2915 0068 3A       		.uleb128 0x3a
 2916 0069 0B       		.uleb128 0xb
 2917 006a 3B       		.uleb128 0x3b
 2918 006b 0B       		.uleb128 0xb
 2919 006c 01       		.uleb128 0x1
 2920 006d 13       		.uleb128 0x13
 2921 006e 00       		.byte	0
 2922 006f 00       		.byte	0
 2923 0070 09       		.uleb128 0x9
 2924 0071 0F       		.uleb128 0xf
 2925 0072 00       		.byte	0
 2926 0073 0B       		.uleb128 0xb
 2927 0074 0B       		.uleb128 0xb
 2928 0075 49       		.uleb128 0x49
ARM GAS  /tmp/ccnagQWr.s 			page 53


 2929 0076 13       		.uleb128 0x13
 2930 0077 00       		.byte	0
 2931 0078 00       		.byte	0
 2932 0079 0A       		.uleb128 0xa
 2933 007a 0F       		.uleb128 0xf
 2934 007b 00       		.byte	0
 2935 007c 0B       		.uleb128 0xb
 2936 007d 0B       		.uleb128 0xb
 2937 007e 00       		.byte	0
 2938 007f 00       		.byte	0
 2939 0080 0B       		.uleb128 0xb
 2940 0081 13       		.uleb128 0x13
 2941 0082 01       		.byte	0x1
 2942 0083 03       		.uleb128 0x3
 2943 0084 0E       		.uleb128 0xe
 2944 0085 0B       		.uleb128 0xb
 2945 0086 0B       		.uleb128 0xb
 2946 0087 3A       		.uleb128 0x3a
 2947 0088 0B       		.uleb128 0xb
 2948 0089 3B       		.uleb128 0x3b
 2949 008a 05       		.uleb128 0x5
 2950 008b 01       		.uleb128 0x1
 2951 008c 13       		.uleb128 0x13
 2952 008d 00       		.byte	0
 2953 008e 00       		.byte	0
 2954 008f 0C       		.uleb128 0xc
 2955 0090 0D       		.uleb128 0xd
 2956 0091 00       		.byte	0
 2957 0092 03       		.uleb128 0x3
 2958 0093 08       		.uleb128 0x8
 2959 0094 3A       		.uleb128 0x3a
 2960 0095 0B       		.uleb128 0xb
 2961 0096 3B       		.uleb128 0x3b
 2962 0097 05       		.uleb128 0x5
 2963 0098 49       		.uleb128 0x49
 2964 0099 13       		.uleb128 0x13
 2965 009a 38       		.uleb128 0x38
 2966 009b 0B       		.uleb128 0xb
 2967 009c 00       		.byte	0
 2968 009d 00       		.byte	0
 2969 009e 0D       		.uleb128 0xd
 2970 009f 35       		.uleb128 0x35
 2971 00a0 00       		.byte	0
 2972 00a1 49       		.uleb128 0x49
 2973 00a2 13       		.uleb128 0x13
 2974 00a3 00       		.byte	0
 2975 00a4 00       		.byte	0
 2976 00a5 0E       		.uleb128 0xe
 2977 00a6 17       		.uleb128 0x17
 2978 00a7 01       		.byte	0x1
 2979 00a8 0B       		.uleb128 0xb
 2980 00a9 0B       		.uleb128 0xb
 2981 00aa 3A       		.uleb128 0x3a
 2982 00ab 0B       		.uleb128 0xb
 2983 00ac 3B       		.uleb128 0x3b
 2984 00ad 0B       		.uleb128 0xb
 2985 00ae 01       		.uleb128 0x1
ARM GAS  /tmp/ccnagQWr.s 			page 54


 2986 00af 13       		.uleb128 0x13
 2987 00b0 00       		.byte	0
 2988 00b1 00       		.byte	0
 2989 00b2 0F       		.uleb128 0xf
 2990 00b3 0D       		.uleb128 0xd
 2991 00b4 00       		.byte	0
 2992 00b5 03       		.uleb128 0x3
 2993 00b6 0E       		.uleb128 0xe
 2994 00b7 3A       		.uleb128 0x3a
 2995 00b8 0B       		.uleb128 0xb
 2996 00b9 3B       		.uleb128 0x3b
 2997 00ba 0B       		.uleb128 0xb
 2998 00bb 49       		.uleb128 0x49
 2999 00bc 13       		.uleb128 0x13
 3000 00bd 00       		.byte	0
 3001 00be 00       		.byte	0
 3002 00bf 10       		.uleb128 0x10
 3003 00c0 26       		.uleb128 0x26
 3004 00c1 00       		.byte	0
 3005 00c2 49       		.uleb128 0x49
 3006 00c3 13       		.uleb128 0x13
 3007 00c4 00       		.byte	0
 3008 00c5 00       		.byte	0
 3009 00c6 11       		.uleb128 0x11
 3010 00c7 15       		.uleb128 0x15
 3011 00c8 01       		.byte	0x1
 3012 00c9 27       		.uleb128 0x27
 3013 00ca 19       		.uleb128 0x19
 3014 00cb 49       		.uleb128 0x49
 3015 00cc 13       		.uleb128 0x13
 3016 00cd 01       		.uleb128 0x1
 3017 00ce 13       		.uleb128 0x13
 3018 00cf 00       		.byte	0
 3019 00d0 00       		.byte	0
 3020 00d1 12       		.uleb128 0x12
 3021 00d2 05       		.uleb128 0x5
 3022 00d3 00       		.byte	0
 3023 00d4 49       		.uleb128 0x49
 3024 00d5 13       		.uleb128 0x13
 3025 00d6 00       		.byte	0
 3026 00d7 00       		.byte	0
 3027 00d8 13       		.uleb128 0x13
 3028 00d9 15       		.uleb128 0x15
 3029 00da 01       		.byte	0x1
 3030 00db 27       		.uleb128 0x27
 3031 00dc 19       		.uleb128 0x19
 3032 00dd 01       		.uleb128 0x1
 3033 00de 13       		.uleb128 0x13
 3034 00df 00       		.byte	0
 3035 00e0 00       		.byte	0
 3036 00e1 14       		.uleb128 0x14
 3037 00e2 13       		.uleb128 0x13
 3038 00e3 01       		.byte	0x1
 3039 00e4 0B       		.uleb128 0xb
 3040 00e5 0B       		.uleb128 0xb
 3041 00e6 3A       		.uleb128 0x3a
 3042 00e7 0B       		.uleb128 0xb
ARM GAS  /tmp/ccnagQWr.s 			page 55


 3043 00e8 3B       		.uleb128 0x3b
 3044 00e9 05       		.uleb128 0x5
 3045 00ea 01       		.uleb128 0x1
 3046 00eb 13       		.uleb128 0x13
 3047 00ec 00       		.byte	0
 3048 00ed 00       		.byte	0
 3049 00ee 15       		.uleb128 0x15
 3050 00ef 0D       		.uleb128 0xd
 3051 00f0 00       		.byte	0
 3052 00f1 03       		.uleb128 0x3
 3053 00f2 0E       		.uleb128 0xe
 3054 00f3 3A       		.uleb128 0x3a
 3055 00f4 0B       		.uleb128 0xb
 3056 00f5 3B       		.uleb128 0x3b
 3057 00f6 05       		.uleb128 0x5
 3058 00f7 49       		.uleb128 0x49
 3059 00f8 13       		.uleb128 0x13
 3060 00f9 38       		.uleb128 0x38
 3061 00fa 0B       		.uleb128 0xb
 3062 00fb 00       		.byte	0
 3063 00fc 00       		.byte	0
 3064 00fd 16       		.uleb128 0x16
 3065 00fe 16       		.uleb128 0x16
 3066 00ff 00       		.byte	0
 3067 0100 03       		.uleb128 0x3
 3068 0101 0E       		.uleb128 0xe
 3069 0102 3A       		.uleb128 0x3a
 3070 0103 0B       		.uleb128 0xb
 3071 0104 3B       		.uleb128 0x3b
 3072 0105 05       		.uleb128 0x5
 3073 0106 49       		.uleb128 0x49
 3074 0107 13       		.uleb128 0x13
 3075 0108 00       		.byte	0
 3076 0109 00       		.byte	0
 3077 010a 17       		.uleb128 0x17
 3078 010b 04       		.uleb128 0x4
 3079 010c 01       		.byte	0x1
 3080 010d 0B       		.uleb128 0xb
 3081 010e 0B       		.uleb128 0xb
 3082 010f 3A       		.uleb128 0x3a
 3083 0110 0B       		.uleb128 0xb
 3084 0111 3B       		.uleb128 0x3b
 3085 0112 0B       		.uleb128 0xb
 3086 0113 01       		.uleb128 0x1
 3087 0114 13       		.uleb128 0x13
 3088 0115 00       		.byte	0
 3089 0116 00       		.byte	0
 3090 0117 18       		.uleb128 0x18
 3091 0118 28       		.uleb128 0x28
 3092 0119 00       		.byte	0
 3093 011a 03       		.uleb128 0x3
 3094 011b 0E       		.uleb128 0xe
 3095 011c 1C       		.uleb128 0x1c
 3096 011d 0D       		.uleb128 0xd
 3097 011e 00       		.byte	0
 3098 011f 00       		.byte	0
 3099 0120 19       		.uleb128 0x19
ARM GAS  /tmp/ccnagQWr.s 			page 56


 3100 0121 01       		.uleb128 0x1
 3101 0122 01       		.byte	0x1
 3102 0123 49       		.uleb128 0x49
 3103 0124 13       		.uleb128 0x13
 3104 0125 01       		.uleb128 0x1
 3105 0126 13       		.uleb128 0x13
 3106 0127 00       		.byte	0
 3107 0128 00       		.byte	0
 3108 0129 1A       		.uleb128 0x1a
 3109 012a 21       		.uleb128 0x21
 3110 012b 00       		.byte	0
 3111 012c 49       		.uleb128 0x49
 3112 012d 13       		.uleb128 0x13
 3113 012e 2F       		.uleb128 0x2f
 3114 012f 0B       		.uleb128 0xb
 3115 0130 00       		.byte	0
 3116 0131 00       		.byte	0
 3117 0132 1B       		.uleb128 0x1b
 3118 0133 2E       		.uleb128 0x2e
 3119 0134 01       		.byte	0x1
 3120 0135 03       		.uleb128 0x3
 3121 0136 0E       		.uleb128 0xe
 3122 0137 3A       		.uleb128 0x3a
 3123 0138 0B       		.uleb128 0xb
 3124 0139 3B       		.uleb128 0x3b
 3125 013a 0B       		.uleb128 0xb
 3126 013b 27       		.uleb128 0x27
 3127 013c 19       		.uleb128 0x19
 3128 013d 49       		.uleb128 0x49
 3129 013e 13       		.uleb128 0x13
 3130 013f 11       		.uleb128 0x11
 3131 0140 01       		.uleb128 0x1
 3132 0141 12       		.uleb128 0x12
 3133 0142 06       		.uleb128 0x6
 3134 0143 40       		.uleb128 0x40
 3135 0144 18       		.uleb128 0x18
 3136 0145 9742     		.uleb128 0x2117
 3137 0147 19       		.uleb128 0x19
 3138 0148 01       		.uleb128 0x1
 3139 0149 13       		.uleb128 0x13
 3140 014a 00       		.byte	0
 3141 014b 00       		.byte	0
 3142 014c 1C       		.uleb128 0x1c
 3143 014d 05       		.uleb128 0x5
 3144 014e 00       		.byte	0
 3145 014f 03       		.uleb128 0x3
 3146 0150 08       		.uleb128 0x8
 3147 0151 3A       		.uleb128 0x3a
 3148 0152 0B       		.uleb128 0xb
 3149 0153 3B       		.uleb128 0x3b
 3150 0154 0B       		.uleb128 0xb
 3151 0155 49       		.uleb128 0x49
 3152 0156 13       		.uleb128 0x13
 3153 0157 02       		.uleb128 0x2
 3154 0158 17       		.uleb128 0x17
 3155 0159 00       		.byte	0
 3156 015a 00       		.byte	0
ARM GAS  /tmp/ccnagQWr.s 			page 57


 3157 015b 1D       		.uleb128 0x1d
 3158 015c 05       		.uleb128 0x5
 3159 015d 00       		.byte	0
 3160 015e 03       		.uleb128 0x3
 3161 015f 0E       		.uleb128 0xe
 3162 0160 3A       		.uleb128 0x3a
 3163 0161 0B       		.uleb128 0xb
 3164 0162 3B       		.uleb128 0x3b
 3165 0163 0B       		.uleb128 0xb
 3166 0164 49       		.uleb128 0x49
 3167 0165 13       		.uleb128 0x13
 3168 0166 02       		.uleb128 0x2
 3169 0167 17       		.uleb128 0x17
 3170 0168 00       		.byte	0
 3171 0169 00       		.byte	0
 3172 016a 1E       		.uleb128 0x1e
 3173 016b 898201   		.uleb128 0x4109
 3174 016e 01       		.byte	0x1
 3175 016f 11       		.uleb128 0x11
 3176 0170 01       		.uleb128 0x1
 3177 0171 9542     		.uleb128 0x2115
 3178 0173 19       		.uleb128 0x19
 3179 0174 31       		.uleb128 0x31
 3180 0175 13       		.uleb128 0x13
 3181 0176 00       		.byte	0
 3182 0177 00       		.byte	0
 3183 0178 1F       		.uleb128 0x1f
 3184 0179 8A8201   		.uleb128 0x410a
 3185 017c 00       		.byte	0
 3186 017d 02       		.uleb128 0x2
 3187 017e 18       		.uleb128 0x18
 3188 017f 9142     		.uleb128 0x2111
 3189 0181 18       		.uleb128 0x18
 3190 0182 00       		.byte	0
 3191 0183 00       		.byte	0
 3192 0184 20       		.uleb128 0x20
 3193 0185 2E       		.uleb128 0x2e
 3194 0186 01       		.byte	0x1
 3195 0187 03       		.uleb128 0x3
 3196 0188 08       		.uleb128 0x8
 3197 0189 3A       		.uleb128 0x3a
 3198 018a 0B       		.uleb128 0xb
 3199 018b 3B       		.uleb128 0x3b
 3200 018c 0B       		.uleb128 0xb
 3201 018d 27       		.uleb128 0x27
 3202 018e 19       		.uleb128 0x19
 3203 018f 49       		.uleb128 0x49
 3204 0190 13       		.uleb128 0x13
 3205 0191 11       		.uleb128 0x11
 3206 0192 01       		.uleb128 0x1
 3207 0193 12       		.uleb128 0x12
 3208 0194 06       		.uleb128 0x6
 3209 0195 40       		.uleb128 0x40
 3210 0196 18       		.uleb128 0x18
 3211 0197 9742     		.uleb128 0x2117
 3212 0199 19       		.uleb128 0x19
 3213 019a 01       		.uleb128 0x1
ARM GAS  /tmp/ccnagQWr.s 			page 58


 3214 019b 13       		.uleb128 0x13
 3215 019c 00       		.byte	0
 3216 019d 00       		.byte	0
 3217 019e 21       		.uleb128 0x21
 3218 019f 2E       		.uleb128 0x2e
 3219 01a0 01       		.byte	0x1
 3220 01a1 3F       		.uleb128 0x3f
 3221 01a2 19       		.uleb128 0x19
 3222 01a3 03       		.uleb128 0x3
 3223 01a4 0E       		.uleb128 0xe
 3224 01a5 3A       		.uleb128 0x3a
 3225 01a6 0B       		.uleb128 0xb
 3226 01a7 3B       		.uleb128 0x3b
 3227 01a8 0B       		.uleb128 0xb
 3228 01a9 27       		.uleb128 0x27
 3229 01aa 19       		.uleb128 0x19
 3230 01ab 11       		.uleb128 0x11
 3231 01ac 01       		.uleb128 0x1
 3232 01ad 12       		.uleb128 0x12
 3233 01ae 06       		.uleb128 0x6
 3234 01af 40       		.uleb128 0x40
 3235 01b0 18       		.uleb128 0x18
 3236 01b1 9742     		.uleb128 0x2117
 3237 01b3 19       		.uleb128 0x19
 3238 01b4 01       		.uleb128 0x1
 3239 01b5 13       		.uleb128 0x13
 3240 01b6 00       		.byte	0
 3241 01b7 00       		.byte	0
 3242 01b8 22       		.uleb128 0x22
 3243 01b9 898201   		.uleb128 0x4109
 3244 01bc 00       		.byte	0
 3245 01bd 11       		.uleb128 0x11
 3246 01be 01       		.uleb128 0x1
 3247 01bf 9542     		.uleb128 0x2115
 3248 01c1 19       		.uleb128 0x19
 3249 01c2 31       		.uleb128 0x31
 3250 01c3 13       		.uleb128 0x13
 3251 01c4 00       		.byte	0
 3252 01c5 00       		.byte	0
 3253 01c6 23       		.uleb128 0x23
 3254 01c7 898201   		.uleb128 0x4109
 3255 01ca 01       		.byte	0x1
 3256 01cb 11       		.uleb128 0x11
 3257 01cc 01       		.uleb128 0x1
 3258 01cd 31       		.uleb128 0x31
 3259 01ce 13       		.uleb128 0x13
 3260 01cf 01       		.uleb128 0x1
 3261 01d0 13       		.uleb128 0x13
 3262 01d1 00       		.byte	0
 3263 01d2 00       		.byte	0
 3264 01d3 24       		.uleb128 0x24
 3265 01d4 898201   		.uleb128 0x4109
 3266 01d7 01       		.byte	0x1
 3267 01d8 11       		.uleb128 0x11
 3268 01d9 01       		.uleb128 0x1
 3269 01da 31       		.uleb128 0x31
 3270 01db 13       		.uleb128 0x13
ARM GAS  /tmp/ccnagQWr.s 			page 59


 3271 01dc 00       		.byte	0
 3272 01dd 00       		.byte	0
 3273 01de 25       		.uleb128 0x25
 3274 01df 0B       		.uleb128 0xb
 3275 01e0 01       		.byte	0x1
 3276 01e1 11       		.uleb128 0x11
 3277 01e2 01       		.uleb128 0x1
 3278 01e3 12       		.uleb128 0x12
 3279 01e4 06       		.uleb128 0x6
 3280 01e5 01       		.uleb128 0x1
 3281 01e6 13       		.uleb128 0x13
 3282 01e7 00       		.byte	0
 3283 01e8 00       		.byte	0
 3284 01e9 26       		.uleb128 0x26
 3285 01ea 34       		.uleb128 0x34
 3286 01eb 00       		.byte	0
 3287 01ec 03       		.uleb128 0x3
 3288 01ed 08       		.uleb128 0x8
 3289 01ee 3A       		.uleb128 0x3a
 3290 01ef 0B       		.uleb128 0xb
 3291 01f0 3B       		.uleb128 0x3b
 3292 01f1 0B       		.uleb128 0xb
 3293 01f2 49       		.uleb128 0x49
 3294 01f3 13       		.uleb128 0x13
 3295 01f4 02       		.uleb128 0x2
 3296 01f5 18       		.uleb128 0x18
 3297 01f6 00       		.byte	0
 3298 01f7 00       		.byte	0
 3299 01f8 27       		.uleb128 0x27
 3300 01f9 898201   		.uleb128 0x4109
 3301 01fc 00       		.byte	0
 3302 01fd 11       		.uleb128 0x11
 3303 01fe 01       		.uleb128 0x1
 3304 01ff 31       		.uleb128 0x31
 3305 0200 13       		.uleb128 0x13
 3306 0201 00       		.byte	0
 3307 0202 00       		.byte	0
 3308 0203 28       		.uleb128 0x28
 3309 0204 898201   		.uleb128 0x4109
 3310 0207 01       		.byte	0x1
 3311 0208 11       		.uleb128 0x11
 3312 0209 01       		.uleb128 0x1
 3313 020a 9542     		.uleb128 0x2115
 3314 020c 19       		.uleb128 0x19
 3315 020d 31       		.uleb128 0x31
 3316 020e 13       		.uleb128 0x13
 3317 020f 01       		.uleb128 0x1
 3318 0210 13       		.uleb128 0x13
 3319 0211 00       		.byte	0
 3320 0212 00       		.byte	0
 3321 0213 29       		.uleb128 0x29
 3322 0214 2E       		.uleb128 0x2e
 3323 0215 01       		.byte	0x1
 3324 0216 3F       		.uleb128 0x3f
 3325 0217 19       		.uleb128 0x19
 3326 0218 03       		.uleb128 0x3
 3327 0219 0E       		.uleb128 0xe
ARM GAS  /tmp/ccnagQWr.s 			page 60


 3328 021a 3A       		.uleb128 0x3a
 3329 021b 0B       		.uleb128 0xb
 3330 021c 3B       		.uleb128 0x3b
 3331 021d 0B       		.uleb128 0xb
 3332 021e 27       		.uleb128 0x27
 3333 021f 19       		.uleb128 0x19
 3334 0220 49       		.uleb128 0x49
 3335 0221 13       		.uleb128 0x13
 3336 0222 11       		.uleb128 0x11
 3337 0223 01       		.uleb128 0x1
 3338 0224 12       		.uleb128 0x12
 3339 0225 06       		.uleb128 0x6
 3340 0226 40       		.uleb128 0x40
 3341 0227 18       		.uleb128 0x18
 3342 0228 9742     		.uleb128 0x2117
 3343 022a 19       		.uleb128 0x19
 3344 022b 01       		.uleb128 0x1
 3345 022c 13       		.uleb128 0x13
 3346 022d 00       		.byte	0
 3347 022e 00       		.byte	0
 3348 022f 2A       		.uleb128 0x2a
 3349 0230 34       		.uleb128 0x34
 3350 0231 00       		.byte	0
 3351 0232 03       		.uleb128 0x3
 3352 0233 08       		.uleb128 0x8
 3353 0234 3A       		.uleb128 0x3a
 3354 0235 0B       		.uleb128 0xb
 3355 0236 3B       		.uleb128 0x3b
 3356 0237 0B       		.uleb128 0xb
 3357 0238 49       		.uleb128 0x49
 3358 0239 13       		.uleb128 0x13
 3359 023a 02       		.uleb128 0x2
 3360 023b 17       		.uleb128 0x17
 3361 023c 00       		.byte	0
 3362 023d 00       		.byte	0
 3363 023e 2B       		.uleb128 0x2b
 3364 023f 34       		.uleb128 0x34
 3365 0240 00       		.byte	0
 3366 0241 03       		.uleb128 0x3
 3367 0242 0E       		.uleb128 0xe
 3368 0243 3A       		.uleb128 0x3a
 3369 0244 0B       		.uleb128 0xb
 3370 0245 3B       		.uleb128 0x3b
 3371 0246 05       		.uleb128 0x5
 3372 0247 49       		.uleb128 0x49
 3373 0248 13       		.uleb128 0x13
 3374 0249 3F       		.uleb128 0x3f
 3375 024a 19       		.uleb128 0x19
 3376 024b 3C       		.uleb128 0x3c
 3377 024c 19       		.uleb128 0x19
 3378 024d 00       		.byte	0
 3379 024e 00       		.byte	0
 3380 024f 2C       		.uleb128 0x2c
 3381 0250 2E       		.uleb128 0x2e
 3382 0251 01       		.byte	0x1
 3383 0252 3F       		.uleb128 0x3f
 3384 0253 19       		.uleb128 0x19
ARM GAS  /tmp/ccnagQWr.s 			page 61


 3385 0254 03       		.uleb128 0x3
 3386 0255 0E       		.uleb128 0xe
 3387 0256 3A       		.uleb128 0x3a
 3388 0257 0B       		.uleb128 0xb
 3389 0258 3B       		.uleb128 0x3b
 3390 0259 05       		.uleb128 0x5
 3391 025a 27       		.uleb128 0x27
 3392 025b 19       		.uleb128 0x19
 3393 025c 49       		.uleb128 0x49
 3394 025d 13       		.uleb128 0x13
 3395 025e 3C       		.uleb128 0x3c
 3396 025f 19       		.uleb128 0x19
 3397 0260 01       		.uleb128 0x1
 3398 0261 13       		.uleb128 0x13
 3399 0262 00       		.byte	0
 3400 0263 00       		.byte	0
 3401 0264 2D       		.uleb128 0x2d
 3402 0265 2E       		.uleb128 0x2e
 3403 0266 00       		.byte	0
 3404 0267 3F       		.uleb128 0x3f
 3405 0268 19       		.uleb128 0x19
 3406 0269 03       		.uleb128 0x3
 3407 026a 0E       		.uleb128 0xe
 3408 026b 3A       		.uleb128 0x3a
 3409 026c 0B       		.uleb128 0xb
 3410 026d 3B       		.uleb128 0x3b
 3411 026e 05       		.uleb128 0x5
 3412 026f 27       		.uleb128 0x27
 3413 0270 19       		.uleb128 0x19
 3414 0271 3C       		.uleb128 0x3c
 3415 0272 19       		.uleb128 0x19
 3416 0273 00       		.byte	0
 3417 0274 00       		.byte	0
 3418 0275 2E       		.uleb128 0x2e
 3419 0276 2E       		.uleb128 0x2e
 3420 0277 01       		.byte	0x1
 3421 0278 3F       		.uleb128 0x3f
 3422 0279 19       		.uleb128 0x19
 3423 027a 03       		.uleb128 0x3
 3424 027b 0E       		.uleb128 0xe
 3425 027c 3A       		.uleb128 0x3a
 3426 027d 0B       		.uleb128 0xb
 3427 027e 3B       		.uleb128 0x3b
 3428 027f 05       		.uleb128 0x5
 3429 0280 27       		.uleb128 0x27
 3430 0281 19       		.uleb128 0x19
 3431 0282 3C       		.uleb128 0x3c
 3432 0283 19       		.uleb128 0x19
 3433 0284 01       		.uleb128 0x1
 3434 0285 13       		.uleb128 0x13
 3435 0286 00       		.byte	0
 3436 0287 00       		.byte	0
 3437 0288 2F       		.uleb128 0x2f
 3438 0289 2E       		.uleb128 0x2e
 3439 028a 00       		.byte	0
 3440 028b 3F       		.uleb128 0x3f
 3441 028c 19       		.uleb128 0x19
ARM GAS  /tmp/ccnagQWr.s 			page 62


 3442 028d 03       		.uleb128 0x3
 3443 028e 0E       		.uleb128 0xe
 3444 028f 3A       		.uleb128 0x3a
 3445 0290 0B       		.uleb128 0xb
 3446 0291 3B       		.uleb128 0x3b
 3447 0292 0B       		.uleb128 0xb
 3448 0293 27       		.uleb128 0x27
 3449 0294 19       		.uleb128 0x19
 3450 0295 3C       		.uleb128 0x3c
 3451 0296 19       		.uleb128 0x19
 3452 0297 00       		.byte	0
 3453 0298 00       		.byte	0
 3454 0299 30       		.uleb128 0x30
 3455 029a 2E       		.uleb128 0x2e
 3456 029b 01       		.byte	0x1
 3457 029c 3F       		.uleb128 0x3f
 3458 029d 19       		.uleb128 0x19
 3459 029e 03       		.uleb128 0x3
 3460 029f 0E       		.uleb128 0xe
 3461 02a0 3A       		.uleb128 0x3a
 3462 02a1 0B       		.uleb128 0xb
 3463 02a2 3B       		.uleb128 0x3b
 3464 02a3 0B       		.uleb128 0xb
 3465 02a4 27       		.uleb128 0x27
 3466 02a5 19       		.uleb128 0x19
 3467 02a6 3C       		.uleb128 0x3c
 3468 02a7 19       		.uleb128 0x19
 3469 02a8 01       		.uleb128 0x1
 3470 02a9 13       		.uleb128 0x13
 3471 02aa 00       		.byte	0
 3472 02ab 00       		.byte	0
 3473 02ac 31       		.uleb128 0x31
 3474 02ad 2E       		.uleb128 0x2e
 3475 02ae 01       		.byte	0x1
 3476 02af 3F       		.uleb128 0x3f
 3477 02b0 19       		.uleb128 0x19
 3478 02b1 03       		.uleb128 0x3
 3479 02b2 0E       		.uleb128 0xe
 3480 02b3 3A       		.uleb128 0x3a
 3481 02b4 0B       		.uleb128 0xb
 3482 02b5 3B       		.uleb128 0x3b
 3483 02b6 05       		.uleb128 0x5
 3484 02b7 27       		.uleb128 0x27
 3485 02b8 19       		.uleb128 0x19
 3486 02b9 49       		.uleb128 0x49
 3487 02ba 13       		.uleb128 0x13
 3488 02bb 3C       		.uleb128 0x3c
 3489 02bc 19       		.uleb128 0x19
 3490 02bd 00       		.byte	0
 3491 02be 00       		.byte	0
 3492 02bf 00       		.byte	0
 3493              		.section	.debug_loc,"",%progbits
 3494              	.Ldebug_loc0:
 3495              	.LLST0:
 3496 0000 00000000 		.4byte	.LVL0
 3497 0004 02000000 		.4byte	.LVL1
 3498 0008 0100     		.2byte	0x1
ARM GAS  /tmp/ccnagQWr.s 			page 63


 3499 000a 50       		.byte	0x50
 3500 000b 02000000 		.4byte	.LVL1
 3501 000f 05000000 		.4byte	.LVL2-1
 3502 0013 0300     		.2byte	0x3
 3503 0015 70       		.byte	0x70
 3504 0016 74       		.sleb128 -12
 3505 0017 9F       		.byte	0x9f
 3506 0018 05000000 		.4byte	.LVL2-1
 3507 001c 06000000 		.4byte	.LFE125
 3508 0020 0400     		.2byte	0x4
 3509 0022 F3       		.byte	0xf3
 3510 0023 01       		.uleb128 0x1
 3511 0024 50       		.byte	0x50
 3512 0025 9F       		.byte	0x9f
 3513 0026 00000000 		.4byte	0
 3514 002a 00000000 		.4byte	0
 3515              	.LLST1:
 3516 002e 00000000 		.4byte	.LVL0
 3517 0032 05000000 		.4byte	.LVL2-1
 3518 0036 0100     		.2byte	0x1
 3519 0038 51       		.byte	0x51
 3520 0039 05000000 		.4byte	.LVL2-1
 3521 003d 06000000 		.4byte	.LFE125
 3522 0041 0400     		.2byte	0x4
 3523 0043 F3       		.byte	0xf3
 3524 0044 01       		.uleb128 0x1
 3525 0045 51       		.byte	0x51
 3526 0046 9F       		.byte	0x9f
 3527 0047 00000000 		.4byte	0
 3528 004b 00000000 		.4byte	0
 3529              	.LLST2:
 3530 004f 00000000 		.4byte	.LVL0
 3531 0053 05000000 		.4byte	.LVL2-1
 3532 0057 0100     		.2byte	0x1
 3533 0059 52       		.byte	0x52
 3534 005a 05000000 		.4byte	.LVL2-1
 3535 005e 06000000 		.4byte	.LFE125
 3536 0062 0400     		.2byte	0x4
 3537 0064 F3       		.byte	0xf3
 3538 0065 01       		.uleb128 0x1
 3539 0066 52       		.byte	0x52
 3540 0067 9F       		.byte	0x9f
 3541 0068 00000000 		.4byte	0
 3542 006c 00000000 		.4byte	0
 3543              	.LLST3:
 3544 0070 00000000 		.4byte	.LVL0
 3545 0074 05000000 		.4byte	.LVL2-1
 3546 0078 0100     		.2byte	0x1
 3547 007a 53       		.byte	0x53
 3548 007b 05000000 		.4byte	.LVL2-1
 3549 007f 06000000 		.4byte	.LFE125
 3550 0083 0400     		.2byte	0x4
 3551 0085 F3       		.byte	0xf3
 3552 0086 01       		.uleb128 0x1
 3553 0087 53       		.byte	0x53
 3554 0088 9F       		.byte	0x9f
 3555 0089 00000000 		.4byte	0
ARM GAS  /tmp/ccnagQWr.s 			page 64


 3556 008d 00000000 		.4byte	0
 3557              	.LLST4:
 3558 0091 00000000 		.4byte	.LVL3
 3559 0095 02000000 		.4byte	.LVL4
 3560 0099 0100     		.2byte	0x1
 3561 009b 50       		.byte	0x50
 3562 009c 02000000 		.4byte	.LVL4
 3563 00a0 09000000 		.4byte	.LVL5-1
 3564 00a4 0300     		.2byte	0x3
 3565 00a6 70       		.byte	0x70
 3566 00a7 74       		.sleb128 -12
 3567 00a8 9F       		.byte	0x9f
 3568 00a9 09000000 		.4byte	.LVL5-1
 3569 00ad 0A000000 		.4byte	.LFE119
 3570 00b1 0400     		.2byte	0x4
 3571 00b3 F3       		.byte	0xf3
 3572 00b4 01       		.uleb128 0x1
 3573 00b5 50       		.byte	0x50
 3574 00b6 9F       		.byte	0x9f
 3575 00b7 00000000 		.4byte	0
 3576 00bb 00000000 		.4byte	0
 3577              	.LLST5:
 3578 00bf 00000000 		.4byte	.LVL3
 3579 00c3 09000000 		.4byte	.LVL5-1
 3580 00c7 0100     		.2byte	0x1
 3581 00c9 51       		.byte	0x51
 3582 00ca 09000000 		.4byte	.LVL5-1
 3583 00ce 0A000000 		.4byte	.LFE119
 3584 00d2 0400     		.2byte	0x4
 3585 00d4 F3       		.byte	0xf3
 3586 00d5 01       		.uleb128 0x1
 3587 00d6 51       		.byte	0x51
 3588 00d7 9F       		.byte	0x9f
 3589 00d8 00000000 		.4byte	0
 3590 00dc 00000000 		.4byte	0
 3591              	.LLST6:
 3592 00e0 00000000 		.4byte	.LVL3
 3593 00e4 09000000 		.4byte	.LVL5-1
 3594 00e8 0100     		.2byte	0x1
 3595 00ea 52       		.byte	0x52
 3596 00eb 09000000 		.4byte	.LVL5-1
 3597 00ef 0A000000 		.4byte	.LFE119
 3598 00f3 0400     		.2byte	0x4
 3599 00f5 F3       		.byte	0xf3
 3600 00f6 01       		.uleb128 0x1
 3601 00f7 52       		.byte	0x52
 3602 00f8 9F       		.byte	0x9f
 3603 00f9 00000000 		.4byte	0
 3604 00fd 00000000 		.4byte	0
 3605              	.LLST7:
 3606 0101 00000000 		.4byte	.LVL6
 3607 0105 02000000 		.4byte	.LVL7
 3608 0109 0100     		.2byte	0x1
 3609 010b 50       		.byte	0x50
 3610 010c 02000000 		.4byte	.LVL7
 3611 0110 05000000 		.4byte	.LVL8-1
 3612 0114 0300     		.2byte	0x3
ARM GAS  /tmp/ccnagQWr.s 			page 65


 3613 0116 70       		.byte	0x70
 3614 0117 50       		.sleb128 -48
 3615 0118 9F       		.byte	0x9f
 3616 0119 05000000 		.4byte	.LVL8-1
 3617 011d 06000000 		.4byte	.LFE124
 3618 0121 0400     		.2byte	0x4
 3619 0123 F3       		.byte	0xf3
 3620 0124 01       		.uleb128 0x1
 3621 0125 50       		.byte	0x50
 3622 0126 9F       		.byte	0x9f
 3623 0127 00000000 		.4byte	0
 3624 012b 00000000 		.4byte	0
 3625              	.LLST8:
 3626 012f 00000000 		.4byte	.LVL6
 3627 0133 05000000 		.4byte	.LVL8-1
 3628 0137 0100     		.2byte	0x1
 3629 0139 51       		.byte	0x51
 3630 013a 05000000 		.4byte	.LVL8-1
 3631 013e 06000000 		.4byte	.LFE124
 3632 0142 0400     		.2byte	0x4
 3633 0144 F3       		.byte	0xf3
 3634 0145 01       		.uleb128 0x1
 3635 0146 51       		.byte	0x51
 3636 0147 9F       		.byte	0x9f
 3637 0148 00000000 		.4byte	0
 3638 014c 00000000 		.4byte	0
 3639              	.LLST9:
 3640 0150 00000000 		.4byte	.LVL6
 3641 0154 05000000 		.4byte	.LVL8-1
 3642 0158 0100     		.2byte	0x1
 3643 015a 52       		.byte	0x52
 3644 015b 05000000 		.4byte	.LVL8-1
 3645 015f 06000000 		.4byte	.LFE124
 3646 0163 0400     		.2byte	0x4
 3647 0165 F3       		.byte	0xf3
 3648 0166 01       		.uleb128 0x1
 3649 0167 52       		.byte	0x52
 3650 0168 9F       		.byte	0x9f
 3651 0169 00000000 		.4byte	0
 3652 016d 00000000 		.4byte	0
 3653              	.LLST10:
 3654 0171 00000000 		.4byte	.LVL6
 3655 0175 05000000 		.4byte	.LVL8-1
 3656 0179 0100     		.2byte	0x1
 3657 017b 53       		.byte	0x53
 3658 017c 05000000 		.4byte	.LVL8-1
 3659 0180 06000000 		.4byte	.LFE124
 3660 0184 0400     		.2byte	0x4
 3661 0186 F3       		.byte	0xf3
 3662 0187 01       		.uleb128 0x1
 3663 0188 53       		.byte	0x53
 3664 0189 9F       		.byte	0x9f
 3665 018a 00000000 		.4byte	0
 3666 018e 00000000 		.4byte	0
 3667              	.LLST11:
 3668 0192 00000000 		.4byte	.LVL9
 3669 0196 02000000 		.4byte	.LVL10
ARM GAS  /tmp/ccnagQWr.s 			page 66


 3670 019a 0100     		.2byte	0x1
 3671 019c 50       		.byte	0x50
 3672 019d 02000000 		.4byte	.LVL10
 3673 01a1 09000000 		.4byte	.LVL11-1
 3674 01a5 0300     		.2byte	0x3
 3675 01a7 70       		.byte	0x70
 3676 01a8 50       		.sleb128 -48
 3677 01a9 9F       		.byte	0x9f
 3678 01aa 09000000 		.4byte	.LVL11-1
 3679 01ae 0A000000 		.4byte	.LFE118
 3680 01b2 0400     		.2byte	0x4
 3681 01b4 F3       		.byte	0xf3
 3682 01b5 01       		.uleb128 0x1
 3683 01b6 50       		.byte	0x50
 3684 01b7 9F       		.byte	0x9f
 3685 01b8 00000000 		.4byte	0
 3686 01bc 00000000 		.4byte	0
 3687              	.LLST12:
 3688 01c0 00000000 		.4byte	.LVL9
 3689 01c4 09000000 		.4byte	.LVL11-1
 3690 01c8 0100     		.2byte	0x1
 3691 01ca 51       		.byte	0x51
 3692 01cb 09000000 		.4byte	.LVL11-1
 3693 01cf 0A000000 		.4byte	.LFE118
 3694 01d3 0400     		.2byte	0x4
 3695 01d5 F3       		.byte	0xf3
 3696 01d6 01       		.uleb128 0x1
 3697 01d7 51       		.byte	0x51
 3698 01d8 9F       		.byte	0x9f
 3699 01d9 00000000 		.4byte	0
 3700 01dd 00000000 		.4byte	0
 3701              	.LLST13:
 3702 01e1 00000000 		.4byte	.LVL9
 3703 01e5 09000000 		.4byte	.LVL11-1
 3704 01e9 0100     		.2byte	0x1
 3705 01eb 52       		.byte	0x52
 3706 01ec 09000000 		.4byte	.LVL11-1
 3707 01f0 0A000000 		.4byte	.LFE118
 3708 01f4 0400     		.2byte	0x4
 3709 01f6 F3       		.byte	0xf3
 3710 01f7 01       		.uleb128 0x1
 3711 01f8 52       		.byte	0x52
 3712 01f9 9F       		.byte	0x9f
 3713 01fa 00000000 		.4byte	0
 3714 01fe 00000000 		.4byte	0
 3715              	.LLST14:
 3716 0202 00000000 		.4byte	.LVL12
 3717 0206 02000000 		.4byte	.LVL13
 3718 020a 0100     		.2byte	0x1
 3719 020c 50       		.byte	0x50
 3720 020d 02000000 		.4byte	.LVL13
 3721 0211 05000000 		.4byte	.LVL14-1
 3722 0215 0300     		.2byte	0x3
 3723 0217 70       		.byte	0x70
 3724 0218 74       		.sleb128 -12
 3725 0219 9F       		.byte	0x9f
 3726 021a 05000000 		.4byte	.LVL14-1
ARM GAS  /tmp/ccnagQWr.s 			page 67


 3727 021e 06000000 		.4byte	.LFE123
 3728 0222 0400     		.2byte	0x4
 3729 0224 F3       		.byte	0xf3
 3730 0225 01       		.uleb128 0x1
 3731 0226 50       		.byte	0x50
 3732 0227 9F       		.byte	0x9f
 3733 0228 00000000 		.4byte	0
 3734 022c 00000000 		.4byte	0
 3735              	.LLST15:
 3736 0230 00000000 		.4byte	.LVL12
 3737 0234 05000000 		.4byte	.LVL14-1
 3738 0238 0100     		.2byte	0x1
 3739 023a 51       		.byte	0x51
 3740 023b 05000000 		.4byte	.LVL14-1
 3741 023f 06000000 		.4byte	.LFE123
 3742 0243 0400     		.2byte	0x4
 3743 0245 F3       		.byte	0xf3
 3744 0246 01       		.uleb128 0x1
 3745 0247 51       		.byte	0x51
 3746 0248 9F       		.byte	0x9f
 3747 0249 00000000 		.4byte	0
 3748 024d 00000000 		.4byte	0
 3749              	.LLST16:
 3750 0251 00000000 		.4byte	.LVL15
 3751 0255 02000000 		.4byte	.LVL16
 3752 0259 0100     		.2byte	0x1
 3753 025b 50       		.byte	0x50
 3754 025c 02000000 		.4byte	.LVL16
 3755 0260 09000000 		.4byte	.LVL17-1
 3756 0264 0300     		.2byte	0x3
 3757 0266 70       		.byte	0x70
 3758 0267 74       		.sleb128 -12
 3759 0268 9F       		.byte	0x9f
 3760 0269 09000000 		.4byte	.LVL17-1
 3761 026d 0A000000 		.4byte	.LFE121
 3762 0271 0400     		.2byte	0x4
 3763 0273 F3       		.byte	0xf3
 3764 0274 01       		.uleb128 0x1
 3765 0275 50       		.byte	0x50
 3766 0276 9F       		.byte	0x9f
 3767 0277 00000000 		.4byte	0
 3768 027b 00000000 		.4byte	0
 3769              	.LLST17:
 3770 027f 00000000 		.4byte	.LVL18
 3771 0283 02000000 		.4byte	.LVL19
 3772 0287 0100     		.2byte	0x1
 3773 0289 50       		.byte	0x50
 3774 028a 02000000 		.4byte	.LVL19
 3775 028e 05000000 		.4byte	.LVL20-1
 3776 0292 0300     		.2byte	0x3
 3777 0294 70       		.byte	0x70
 3778 0295 50       		.sleb128 -48
 3779 0296 9F       		.byte	0x9f
 3780 0297 05000000 		.4byte	.LVL20-1
 3781 029b 06000000 		.4byte	.LFE122
 3782 029f 0400     		.2byte	0x4
 3783 02a1 F3       		.byte	0xf3
ARM GAS  /tmp/ccnagQWr.s 			page 68


 3784 02a2 01       		.uleb128 0x1
 3785 02a3 50       		.byte	0x50
 3786 02a4 9F       		.byte	0x9f
 3787 02a5 00000000 		.4byte	0
 3788 02a9 00000000 		.4byte	0
 3789              	.LLST18:
 3790 02ad 00000000 		.4byte	.LVL18
 3791 02b1 05000000 		.4byte	.LVL20-1
 3792 02b5 0100     		.2byte	0x1
 3793 02b7 51       		.byte	0x51
 3794 02b8 05000000 		.4byte	.LVL20-1
 3795 02bc 06000000 		.4byte	.LFE122
 3796 02c0 0400     		.2byte	0x4
 3797 02c2 F3       		.byte	0xf3
 3798 02c3 01       		.uleb128 0x1
 3799 02c4 51       		.byte	0x51
 3800 02c5 9F       		.byte	0x9f
 3801 02c6 00000000 		.4byte	0
 3802 02ca 00000000 		.4byte	0
 3803              	.LLST19:
 3804 02ce 00000000 		.4byte	.LVL18
 3805 02d2 05000000 		.4byte	.LVL20-1
 3806 02d6 0100     		.2byte	0x1
 3807 02d8 52       		.byte	0x52
 3808 02d9 05000000 		.4byte	.LVL20-1
 3809 02dd 06000000 		.4byte	.LFE122
 3810 02e1 0400     		.2byte	0x4
 3811 02e3 F3       		.byte	0xf3
 3812 02e4 01       		.uleb128 0x1
 3813 02e5 52       		.byte	0x52
 3814 02e6 9F       		.byte	0x9f
 3815 02e7 00000000 		.4byte	0
 3816 02eb 00000000 		.4byte	0
 3817              	.LLST20:
 3818 02ef 00000000 		.4byte	.LVL21
 3819 02f3 02000000 		.4byte	.LVL22
 3820 02f7 0100     		.2byte	0x1
 3821 02f9 50       		.byte	0x50
 3822 02fa 02000000 		.4byte	.LVL22
 3823 02fe 09000000 		.4byte	.LVL23-1
 3824 0302 0300     		.2byte	0x3
 3825 0304 70       		.byte	0x70
 3826 0305 50       		.sleb128 -48
 3827 0306 9F       		.byte	0x9f
 3828 0307 09000000 		.4byte	.LVL23-1
 3829 030b 0A000000 		.4byte	.LFE120
 3830 030f 0400     		.2byte	0x4
 3831 0311 F3       		.byte	0xf3
 3832 0312 01       		.uleb128 0x1
 3833 0313 50       		.byte	0x50
 3834 0314 9F       		.byte	0x9f
 3835 0315 00000000 		.4byte	0
 3836 0319 00000000 		.4byte	0
 3837              	.LLST21:
 3838 031d 00000000 		.4byte	.LVL21
 3839 0321 09000000 		.4byte	.LVL23-1
 3840 0325 0100     		.2byte	0x1
ARM GAS  /tmp/ccnagQWr.s 			page 69


 3841 0327 51       		.byte	0x51
 3842 0328 09000000 		.4byte	.LVL23-1
 3843 032c 0A000000 		.4byte	.LFE120
 3844 0330 0400     		.2byte	0x4
 3845 0332 F3       		.byte	0xf3
 3846 0333 01       		.uleb128 0x1
 3847 0334 51       		.byte	0x51
 3848 0335 9F       		.byte	0x9f
 3849 0336 00000000 		.4byte	0
 3850 033a 00000000 		.4byte	0
 3851              	.LLST22:
 3852 033e 00000000 		.4byte	.LVL25
 3853 0342 0C000000 		.4byte	.LVL26
 3854 0346 0100     		.2byte	0x1
 3855 0348 50       		.byte	0x50
 3856 0349 0C000000 		.4byte	.LVL26
 3857 034d 3C000000 		.4byte	.LVL31
 3858 0351 0100     		.2byte	0x1
 3859 0353 54       		.byte	0x54
 3860 0354 3C000000 		.4byte	.LVL31
 3861 0358 40000000 		.4byte	.LFE127
 3862 035c 0400     		.2byte	0x4
 3863 035e F3       		.byte	0xf3
 3864 035f 01       		.uleb128 0x1
 3865 0360 50       		.byte	0x50
 3866 0361 9F       		.byte	0x9f
 3867 0362 00000000 		.4byte	0
 3868 0366 00000000 		.4byte	0
 3869              	.LLST23:
 3870 036a 00000000 		.4byte	.LVL25
 3871 036e 1A000000 		.4byte	.LVL27
 3872 0372 0100     		.2byte	0x1
 3873 0374 51       		.byte	0x51
 3874 0375 1A000000 		.4byte	.LVL27
 3875 0379 25000000 		.4byte	.LVL29-1
 3876 037d 0100     		.2byte	0x1
 3877 037f 53       		.byte	0x53
 3878 0380 25000000 		.4byte	.LVL29-1
 3879 0384 40000000 		.4byte	.LFE127
 3880 0388 0400     		.2byte	0x4
 3881 038a F3       		.byte	0xf3
 3882 038b 01       		.uleb128 0x1
 3883 038c 51       		.byte	0x51
 3884 038d 9F       		.byte	0x9f
 3885 038e 00000000 		.4byte	0
 3886 0392 00000000 		.4byte	0
 3887              	.LLST24:
 3888 0396 00000000 		.4byte	.LVL25
 3889 039a 22000000 		.4byte	.LVL28
 3890 039e 0100     		.2byte	0x1
 3891 03a0 52       		.byte	0x52
 3892 03a1 22000000 		.4byte	.LVL28
 3893 03a5 3C000000 		.4byte	.LVL31
 3894 03a9 0100     		.2byte	0x1
 3895 03ab 55       		.byte	0x55
 3896 03ac 3C000000 		.4byte	.LVL31
 3897 03b0 40000000 		.4byte	.LFE127
ARM GAS  /tmp/ccnagQWr.s 			page 70


 3898 03b4 0400     		.2byte	0x4
 3899 03b6 F3       		.byte	0xf3
 3900 03b7 01       		.uleb128 0x1
 3901 03b8 52       		.byte	0x52
 3902 03b9 9F       		.byte	0x9f
 3903 03ba 00000000 		.4byte	0
 3904 03be 00000000 		.4byte	0
 3905              	.LLST25:
 3906 03c2 00000000 		.4byte	.LVL32
 3907 03c6 08000000 		.4byte	.LVL33
 3908 03ca 0100     		.2byte	0x1
 3909 03cc 50       		.byte	0x50
 3910 03cd 08000000 		.4byte	.LVL33
 3911 03d1 38000000 		.4byte	.LVL38
 3912 03d5 0100     		.2byte	0x1
 3913 03d7 54       		.byte	0x54
 3914 03d8 38000000 		.4byte	.LVL38
 3915 03dc 3A000000 		.4byte	.LVL39
 3916 03e0 0100     		.2byte	0x1
 3917 03e2 50       		.byte	0x50
 3918 03e3 3A000000 		.4byte	.LVL39
 3919 03e7 48000000 		.4byte	.LFE128
 3920 03eb 0100     		.2byte	0x1
 3921 03ed 54       		.byte	0x54
 3922 03ee 00000000 		.4byte	0
 3923 03f2 00000000 		.4byte	0
 3924              	.LLST26:
 3925 03f6 00000000 		.4byte	.LVL32
 3926 03fa 08000000 		.4byte	.LVL33
 3927 03fe 0100     		.2byte	0x1
 3928 0400 51       		.byte	0x51
 3929 0401 08000000 		.4byte	.LVL33
 3930 0405 38000000 		.4byte	.LVL38
 3931 0409 0100     		.2byte	0x1
 3932 040b 55       		.byte	0x55
 3933 040c 38000000 		.4byte	.LVL38
 3934 0410 3D000000 		.4byte	.LVL40-1
 3935 0414 0100     		.2byte	0x1
 3936 0416 51       		.byte	0x51
 3937 0417 3D000000 		.4byte	.LVL40-1
 3938 041b 48000000 		.4byte	.LFE128
 3939 041f 0100     		.2byte	0x1
 3940 0421 55       		.byte	0x55
 3941 0422 00000000 		.4byte	0
 3942 0426 00000000 		.4byte	0
 3943              	.LLST27:
 3944 042a 00000000 		.4byte	.LVL41
 3945 042e 06000000 		.4byte	.LVL42
 3946 0432 0100     		.2byte	0x1
 3947 0434 50       		.byte	0x50
 3948 0435 06000000 		.4byte	.LVL42
 3949 0439 48000000 		.4byte	.LVL50
 3950 043d 0100     		.2byte	0x1
 3951 043f 54       		.byte	0x54
 3952 0440 48000000 		.4byte	.LVL50
 3953 0444 4A000000 		.4byte	.LVL51
 3954 0448 0100     		.2byte	0x1
ARM GAS  /tmp/ccnagQWr.s 			page 71


 3955 044a 50       		.byte	0x50
 3956 044b 4A000000 		.4byte	.LVL51
 3957 044f 58000000 		.4byte	.LFE129
 3958 0453 0100     		.2byte	0x1
 3959 0455 54       		.byte	0x54
 3960 0456 00000000 		.4byte	0
 3961 045a 00000000 		.4byte	0
 3962              	.LLST28:
 3963 045e 00000000 		.4byte	.LVL53
 3964 0462 09000000 		.4byte	.LVL54-1
 3965 0466 0100     		.2byte	0x1
 3966 0468 50       		.byte	0x50
 3967 0469 09000000 		.4byte	.LVL54-1
 3968 046d 3E000000 		.4byte	.LVL59
 3969 0471 0100     		.2byte	0x1
 3970 0473 54       		.byte	0x54
 3971 0474 3E000000 		.4byte	.LVL59
 3972 0478 41000000 		.4byte	.LVL60-1
 3973 047c 0300     		.2byte	0x3
 3974 047e 70       		.byte	0x70
 3975 047f 7C       		.sleb128 -4
 3976 0480 9F       		.byte	0x9f
 3977 0481 41000000 		.4byte	.LVL60-1
 3978 0485 42000000 		.4byte	.LVL60
 3979 0489 0400     		.2byte	0x4
 3980 048b F3       		.byte	0xf3
 3981 048c 01       		.uleb128 0x1
 3982 048d 50       		.byte	0x50
 3983 048e 9F       		.byte	0x9f
 3984 048f 42000000 		.4byte	.LVL60
 3985 0493 50000000 		.4byte	.LFE130
 3986 0497 0100     		.2byte	0x1
 3987 0499 54       		.byte	0x54
 3988 049a 00000000 		.4byte	0
 3989 049e 00000000 		.4byte	0
 3990              	.LLST29:
 3991 04a2 00000000 		.4byte	.LVL53
 3992 04a6 09000000 		.4byte	.LVL54-1
 3993 04aa 0100     		.2byte	0x1
 3994 04ac 51       		.byte	0x51
 3995 04ad 09000000 		.4byte	.LVL54-1
 3996 04b1 50000000 		.4byte	.LFE130
 3997 04b5 0400     		.2byte	0x4
 3998 04b7 F3       		.byte	0xf3
 3999 04b8 01       		.uleb128 0x1
 4000 04b9 51       		.byte	0x51
 4001 04ba 9F       		.byte	0x9f
 4002 04bb 00000000 		.4byte	0
 4003 04bf 00000000 		.4byte	0
 4004              	.LLST30:
 4005 04c3 00000000 		.4byte	.LVL62
 4006 04c7 07000000 		.4byte	.LVL63-1
 4007 04cb 0100     		.2byte	0x1
 4008 04cd 50       		.byte	0x50
 4009 04ce 07000000 		.4byte	.LVL63-1
 4010 04d2 34000000 		.4byte	.LFE131
 4011 04d6 0100     		.2byte	0x1
ARM GAS  /tmp/ccnagQWr.s 			page 72


 4012 04d8 54       		.byte	0x54
 4013 04d9 00000000 		.4byte	0
 4014 04dd 00000000 		.4byte	0
 4015              	.LLST31:
 4016 04e1 12000000 		.4byte	.LVL64
 4017 04e5 1C000000 		.4byte	.LVL66
 4018 04e9 0100     		.2byte	0x1
 4019 04eb 50       		.byte	0x50
 4020 04ec 1C000000 		.4byte	.LVL66
 4021 04f0 26000000 		.4byte	.LVL68
 4022 04f4 0100     		.2byte	0x1
 4023 04f6 55       		.byte	0x55
 4024 04f7 00000000 		.4byte	0
 4025 04fb 00000000 		.4byte	0
 4026              		.section	.debug_aranges,"",%progbits
 4027 0000 84000000 		.4byte	0x84
 4028 0004 0200     		.2byte	0x2
 4029 0006 00000000 		.4byte	.Ldebug_info0
 4030 000a 04       		.byte	0x4
 4031 000b 00       		.byte	0
 4032 000c 0000     		.2byte	0
 4033 000e 0000     		.2byte	0
 4034 0010 00000000 		.4byte	.LFB125
 4035 0014 06000000 		.4byte	.LFE125-.LFB125
 4036 0018 00000000 		.4byte	.LFB119
 4037 001c 0A000000 		.4byte	.LFE119-.LFB119
 4038 0020 00000000 		.4byte	.LFB124
 4039 0024 06000000 		.4byte	.LFE124-.LFB124
 4040 0028 00000000 		.4byte	.LFB118
 4041 002c 0A000000 		.4byte	.LFE118-.LFB118
 4042 0030 00000000 		.4byte	.LFB123
 4043 0034 06000000 		.4byte	.LFE123-.LFB123
 4044 0038 00000000 		.4byte	.LFB121
 4045 003c 0A000000 		.4byte	.LFE121-.LFB121
 4046 0040 00000000 		.4byte	.LFB122
 4047 0044 06000000 		.4byte	.LFE122-.LFB122
 4048 0048 00000000 		.4byte	.LFB120
 4049 004c 0A000000 		.4byte	.LFE120-.LFB120
 4050 0050 00000000 		.4byte	.LFB126
 4051 0054 04000000 		.4byte	.LFE126-.LFB126
 4052 0058 00000000 		.4byte	.LFB127
 4053 005c 40000000 		.4byte	.LFE127-.LFB127
 4054 0060 00000000 		.4byte	.LFB128
 4055 0064 48000000 		.4byte	.LFE128-.LFB128
 4056 0068 00000000 		.4byte	.LFB129
 4057 006c 58000000 		.4byte	.LFE129-.LFB129
 4058 0070 00000000 		.4byte	.LFB130
 4059 0074 50000000 		.4byte	.LFE130-.LFB130
 4060 0078 00000000 		.4byte	.LFB131
 4061 007c 34000000 		.4byte	.LFE131-.LFB131
 4062 0080 00000000 		.4byte	0
 4063 0084 00000000 		.4byte	0
 4064              		.section	.debug_ranges,"",%progbits
 4065              	.Ldebug_ranges0:
 4066 0000 00000000 		.4byte	.LFB125
 4067 0004 06000000 		.4byte	.LFE125
 4068 0008 00000000 		.4byte	.LFB119
ARM GAS  /tmp/ccnagQWr.s 			page 73


 4069 000c 0A000000 		.4byte	.LFE119
 4070 0010 00000000 		.4byte	.LFB124
 4071 0014 06000000 		.4byte	.LFE124
 4072 0018 00000000 		.4byte	.LFB118
 4073 001c 0A000000 		.4byte	.LFE118
 4074 0020 00000000 		.4byte	.LFB123
 4075 0024 06000000 		.4byte	.LFE123
 4076 0028 00000000 		.4byte	.LFB121
 4077 002c 0A000000 		.4byte	.LFE121
 4078 0030 00000000 		.4byte	.LFB122
 4079 0034 06000000 		.4byte	.LFE122
 4080 0038 00000000 		.4byte	.LFB120
 4081 003c 0A000000 		.4byte	.LFE120
 4082 0040 00000000 		.4byte	.LFB126
 4083 0044 04000000 		.4byte	.LFE126
 4084 0048 00000000 		.4byte	.LFB127
 4085 004c 40000000 		.4byte	.LFE127
 4086 0050 00000000 		.4byte	.LFB128
 4087 0054 48000000 		.4byte	.LFE128
 4088 0058 00000000 		.4byte	.LFB129
 4089 005c 58000000 		.4byte	.LFE129
 4090 0060 00000000 		.4byte	.LFB130
 4091 0064 50000000 		.4byte	.LFE130
 4092 0068 00000000 		.4byte	.LFB131
 4093 006c 34000000 		.4byte	.LFE131
 4094 0070 00000000 		.4byte	0
 4095 0074 00000000 		.4byte	0
 4096              		.section	.debug_line,"",%progbits
 4097              	.Ldebug_line0:
 4098 0000 86030000 		.section	.debug_str,"MS",%progbits,1
 4098      02004202 
 4098      00000201 
 4098      FB0E0D00 
 4098      01010101 
 4099              	.LASF128:
 4100 0000 63684F51 		.ascii	"chOQPutTimeout\000"
 4100      50757454 
 4100      696D656F 
 4100      757400
 4101              	.LASF2:
 4102 000f 73697A65 		.ascii	"size_t\000"
 4102      5F7400
 4103              	.LASF70:
 4104 0016 7264796D 		.ascii	"rdymsg\000"
 4104      736700
 4105              	.LASF19:
 4106 001d 75696E74 		.ascii	"uint64_t\000"
 4106      36345F74 
 4106      00
 4107              	.LASF86:
 4108 0026 4F757470 		.ascii	"OutputQueue\000"
 4108      75745175 
 4108      65756500 
 4109              	.LASF3:
 4110 0032 5F5F7569 		.ascii	"__uint8_t\000"
 4110      6E74385F 
 4110      7400
ARM GAS  /tmp/ccnagQWr.s 			page 74


 4111              	.LASF125:
 4112 003c 63684951 		.ascii	"chIQReadTimeout\000"
 4112      52656164 
 4112      54696D65 
 4112      6F757400 
 4113              	.LASF14:
 4114 004c 6C6F6E67 		.ascii	"long long unsigned int\000"
 4114      206C6F6E 
 4114      6720756E 
 4114      7369676E 
 4114      65642069 
 4115              	.LASF138:
 4116 0063 63684951 		.ascii	"chIQResetI\000"
 4116      52657365 
 4116      744900
 4117              	.LASF144:
 4118 006e 474E5520 		.ascii	"GNU C 4.9.2 20150128 (prerelease) -mcpu=cortex-m4 -"
 4118      4320342E 
 4118      392E3220 
 4118      32303135 
 4118      30313238 
 4119 00a1 6D6E6F2D 		.ascii	"mno-thumb-interwork -mthumb -ggdb -O2 -fomit-frame-"
 4119      7468756D 
 4119      622D696E 
 4119      74657277 
 4119      6F726B20 
 4120 00d4 706F696E 		.ascii	"pointer -falign-functions=16 -ffunction-sections -f"
 4120      74657220 
 4120      2D66616C 
 4120      69676E2D 
 4120      66756E63 
 4121 0107 64617461 		.ascii	"data-sections -fno-common\000"
 4121      2D736563 
 4121      74696F6E 
 4121      73202D66 
 4121      6E6F2D63 
 4122              	.LASF71:
 4123 0121 65786974 		.ascii	"exitcode\000"
 4123      636F6465 
 4123      00
 4124              	.LASF133:
 4125 012a 63684462 		.ascii	"chDbgPanic\000"
 4125      6750616E 
 4125      696300
 4126              	.LASF148:
 4127 0135 49544D5F 		.ascii	"ITM_RxBuffer\000"
 4127      52784275 
 4127      66666572 
 4127      00
 4128              	.LASF118:
 4129 0142 73644F62 		.ascii	"sdObjectInit\000"
 4129      6A656374 
 4129      496E6974 
 4129      00
 4130              	.LASF114:
 4131 014f 72656164 		.ascii	"readt\000"
 4131      7400
ARM GAS  /tmp/ccnagQWr.s 			page 75


 4132              	.LASF76:
 4133 0155 715F7761 		.ascii	"q_waiting\000"
 4133      6974696E 
 4133      6700
 4134              	.LASF12:
 4135 015f 6C6F6E67 		.ascii	"long long int\000"
 4135      206C6F6E 
 4135      6720696E 
 4135      7400
 4136              	.LASF1:
 4137 016d 7369676E 		.ascii	"signed char\000"
 4137      65642063 
 4137      68617200 
 4138              	.LASF93:
 4139 0179 47545052 		.ascii	"GTPR\000"
 4139      00
 4140              	.LASF51:
 4141 017e 705F6D70 		.ascii	"p_mpool\000"
 4141      6F6F6C00 
 4142              	.LASF20:
 4143 0186 626F6F6C 		.ascii	"bool_t\000"
 4143      5F7400
 4144              	.LASF60:
 4145 018d 6D5F7175 		.ascii	"m_queue\000"
 4145      65756500 
 4146              	.LASF25:
 4147 0195 74736C69 		.ascii	"tslices_t\000"
 4147      6365735F 
 4147      7400
 4148              	.LASF102:
 4149 019f 73746174 		.ascii	"state\000"
 4149      6500
 4150              	.LASF130:
 4151 01a5 63684F51 		.ascii	"chOQInit\000"
 4151      496E6974 
 4151      00
 4152              	.LASF9:
 4153 01ae 6C6F6E67 		.ascii	"long int\000"
 4153      20696E74 
 4153      00
 4154              	.LASF23:
 4155 01b7 74737461 		.ascii	"tstate_t\000"
 4155      74655F74 
 4155      00
 4156              	.LASF143:
 4157 01c0 63684F51 		.ascii	"chOQGetI\000"
 4157      47657449 
 4157      00
 4158              	.LASF42:
 4159 01c9 705F7265 		.ascii	"p_refs\000"
 4159      667300
 4160              	.LASF78:
 4161 01d0 715F6275 		.ascii	"q_buffer\000"
 4161      66666572 
 4161      00
 4162              	.LASF80:
 4163 01d9 715F7772 		.ascii	"q_wrptr\000"
ARM GAS  /tmp/ccnagQWr.s 			page 76


 4163      70747200 
 4164              	.LASF83:
 4165 01e1 715F6C69 		.ascii	"q_link\000"
 4165      6E6B00
 4166              	.LASF142:
 4167 01e8 63684576 		.ascii	"chEvtBroadcastFlagsI\000"
 4167      7442726F 
 4167      61646361 
 4167      7374466C 
 4167      61677349 
 4168              	.LASF36:
 4169 01fd 705F6E65 		.ascii	"p_newer\000"
 4169      77657200 
 4170              	.LASF139:
 4171 0205 63685363 		.ascii	"chSchRescheduleS\000"
 4171      68526573 
 4171      63686564 
 4171      756C6553 
 4171      00
 4172              	.LASF10:
 4173 0216 5F5F7569 		.ascii	"__uint32_t\000"
 4173      6E743332 
 4173      5F7400
 4174              	.LASF54:
 4175 0221 72656761 		.ascii	"regarm_t\000"
 4175      726D5F74 
 4175      00
 4176              	.LASF146:
 4177 022a 2F686F6D 		.ascii	"/home/julien/Documents/telecom/ROSE/JulienRomero/ch"
 4177      652F6A75 
 4177      6C69656E 
 4177      2F446F63 
 4177      756D656E 
 4178 025d 616C6C65 		.ascii	"allenge2015/ChibiOS_2.6.7/testhal/STM32F4xx/SDC\000"
 4178      6E676532 
 4178      3031352F 
 4178      43686962 
 4178      694F535F 
 4179              	.LASF141:
 4180 028d 63684951 		.ascii	"chIQPutI\000"
 4180      50757449 
 4180      00
 4181              	.LASF68:
 4182 0296 4576656E 		.ascii	"EventSource\000"
 4182      74536F75 
 4182      72636500 
 4183              	.LASF105:
 4184 02a2 75736172 		.ascii	"usart\000"
 4184      7400
 4185              	.LASF0:
 4186 02a8 756E7369 		.ascii	"unsigned int\000"
 4186      676E6564 
 4186      20696E74 
 4186      00
 4187              	.LASF16:
 4188 02b5 75696E74 		.ascii	"uint16_t\000"
 4188      31365F74 
ARM GAS  /tmp/ccnagQWr.s 			page 77


 4188      00
 4189              	.LASF108:
 4190 02be 53657269 		.ascii	"SerialDriverVMT\000"
 4190      616C4472 
 4190      69766572 
 4190      564D5400 
 4191              	.LASF44:
 4192 02ce 705F7469 		.ascii	"p_time\000"
 4192      6D6500
 4193              	.LASF119:
 4194 02d5 696E6F74 		.ascii	"inotify\000"
 4194      69667900 
 4195              	.LASF103:
 4196 02dd 69717565 		.ascii	"iqueue\000"
 4196      756500
 4197              	.LASF46:
 4198 02e4 705F6D73 		.ascii	"p_msgqueue\000"
 4198      67717565 
 4198      756500
 4199              	.LASF131:
 4200 02ef 73645F6C 		.ascii	"sd_lld_init\000"
 4200      6C645F69 
 4200      6E697400 
 4201              	.LASF112:
 4202 02fb 67657474 		.ascii	"gett\000"
 4202      00
 4203              	.LASF101:
 4204 0300 6576656E 		.ascii	"event\000"
 4204      7400
 4205              	.LASF7:
 4206 0306 73686F72 		.ascii	"short unsigned int\000"
 4206      7420756E 
 4206      7369676E 
 4206      65642069 
 4206      6E7400
 4207              	.LASF27:
 4208 0319 6D73675F 		.ascii	"msg_t\000"
 4208      7400
 4209              	.LASF104:
 4210 031f 6F717565 		.ascii	"oqueue\000"
 4210      756500
 4211              	.LASF140:
 4212 0326 63684462 		.ascii	"chDbgCheckClassI\000"
 4212      67436865 
 4212      636B436C 
 4212      61737349 
 4212      00
 4213              	.LASF95:
 4214 0337 55534152 		.ascii	"USART_TypeDef\000"
 4214      545F5479 
 4214      70654465 
 4214      6600
 4215              	.LASF113:
 4216 0345 77726974 		.ascii	"writet\000"
 4216      657400
 4217              	.LASF22:
 4218 034c 746D6F64 		.ascii	"tmode_t\000"
ARM GAS  /tmp/ccnagQWr.s 			page 78


 4218      655F7400 
 4219              	.LASF53:
 4220 0354 54687265 		.ascii	"ThreadsList\000"
 4220      6164734C 
 4220      69737400 
 4221              	.LASF28:
 4222 0360 6576656E 		.ascii	"eventmask_t\000"
 4222      746D6173 
 4222      6B5F7400 
 4223              	.LASF85:
 4224 036c 496E7075 		.ascii	"InputQueue\000"
 4224      74517565 
 4224      756500
 4225              	.LASF106:
 4226 0377 73706565 		.ascii	"speed\000"
 4226      6400
 4227              	.LASF84:
 4228 037d 716E6F74 		.ascii	"qnotify_t\000"
 4228      6966795F 
 4228      7400
 4229              	.LASF75:
 4230 0387 47656E65 		.ascii	"GenericQueue\000"
 4230      72696351 
 4230      75657565 
 4230      00
 4231              	.LASF55:
 4232 0394 73746B61 		.ascii	"stkalign_t\000"
 4232      6C69676E 
 4232      5F7400
 4233              	.LASF126:
 4234 039f 63684F51 		.ascii	"chOQWriteTimeout\000"
 4234      57726974 
 4234      6554696D 
 4234      656F7574 
 4234      00
 4235              	.LASF109:
 4236 03b0 77726974 		.ascii	"write\000"
 4236      6500
 4237              	.LASF111:
 4238 03b6 70757474 		.ascii	"putt\000"
 4238      00
 4239              	.LASF58:
 4240 03bb 73697A65 		.ascii	"sizetype\000"
 4240      74797065 
 4240      00
 4241              	.LASF77:
 4242 03c4 715F636F 		.ascii	"q_counter\000"
 4242      756E7465 
 4242      7200
 4243              	.LASF59:
 4244 03ce 4D757465 		.ascii	"Mutex\000"
 4244      7800
 4245              	.LASF34:
 4246 03d4 705F7072 		.ascii	"p_prio\000"
 4246      696F00
 4247              	.LASF66:
 4248 03db 656C5F6D 		.ascii	"el_mask\000"
ARM GAS  /tmp/ccnagQWr.s 			page 79


 4248      61736B00 
 4249              	.LASF37:
 4250 03e3 705F6F6C 		.ascii	"p_older\000"
 4250      64657200 
 4251              	.LASF52:
 4252 03eb 54687265 		.ascii	"ThreadsQueue\000"
 4252      61647351 
 4252      75657565 
 4252      00
 4253              	.LASF39:
 4254 03f8 705F7374 		.ascii	"p_stklimit\000"
 4254      6B6C696D 
 4254      697400
 4255              	.LASF123:
 4256 0403 73645374 		.ascii	"sdStop\000"
 4256      6F7000
 4257              	.LASF115:
 4258 040a 74696D65 		.ascii	"time\000"
 4258      00
 4259              	.LASF132:
 4260 040f 6462675F 		.ascii	"dbg_check_lock\000"
 4260      63686563 
 4260      6B5F6C6F 
 4260      636B00
 4261              	.LASF135:
 4262 041e 6462675F 		.ascii	"dbg_check_unlock\000"
 4262      63686563 
 4262      6B5F756E 
 4262      6C6F636B 
 4262      00
 4263              	.LASF107:
 4264 042f 53657269 		.ascii	"SerialConfig\000"
 4264      616C436F 
 4264      6E666967 
 4264      00
 4265              	.LASF13:
 4266 043c 5F5F7569 		.ascii	"__uint64_t\000"
 4266      6E743634 
 4266      5F7400
 4267              	.LASF24:
 4268 0447 74726566 		.ascii	"trefs_t\000"
 4268      735F7400 
 4269              	.LASF87:
 4270 044f 52455345 		.ascii	"RESERVED0\000"
 4270      52564544 
 4270      3000
 4271              	.LASF88:
 4272 0459 52455345 		.ascii	"RESERVED1\000"
 4272      52564544 
 4272      3100
 4273              	.LASF89:
 4274 0463 52455345 		.ascii	"RESERVED2\000"
 4274      52564544 
 4274      3200
 4275              	.LASF90:
 4276 046d 52455345 		.ascii	"RESERVED3\000"
 4276      52564544 
ARM GAS  /tmp/ccnagQWr.s 			page 80


 4276      3300
 4277              	.LASF91:
 4278 0477 52455345 		.ascii	"RESERVED4\000"
 4278      52564544 
 4278      3400
 4279              	.LASF33:
 4280 0481 705F7072 		.ascii	"p_prev\000"
 4280      657600
 4281              	.LASF94:
 4282 0488 52455345 		.ascii	"RESERVED6\000"
 4282      52564544 
 4282      3600
 4283              	.LASF26:
 4284 0492 74707269 		.ascii	"tprio_t\000"
 4284      6F5F7400 
 4285              	.LASF81:
 4286 049a 715F7264 		.ascii	"q_rdptr\000"
 4286      70747200 
 4287              	.LASF21:
 4288 04a2 5F426F6F 		.ascii	"_Bool\000"
 4288      6C00
 4289              	.LASF17:
 4290 04a8 696E7433 		.ascii	"int32_t\000"
 4290      325F7400 
 4291              	.LASF4:
 4292 04b0 756E7369 		.ascii	"unsigned char\000"
 4292      676E6564 
 4292      20636861 
 4292      7200
 4293              	.LASF134:
 4294 04be 73645F6C 		.ascii	"sd_lld_start\000"
 4294      6C645F73 
 4294      74617274 
 4294      00
 4295              	.LASF65:
 4296 04cb 656C5F6C 		.ascii	"el_listener\000"
 4296      69737465 
 4296      6E657200 
 4297              	.LASF67:
 4298 04d7 656C5F66 		.ascii	"el_flags\000"
 4298      6C616773 
 4298      00
 4299              	.LASF40:
 4300 04e0 705F7374 		.ascii	"p_state\000"
 4300      61746500 
 4301              	.LASF49:
 4302 04e8 705F6D74 		.ascii	"p_mtxlist\000"
 4302      786C6973 
 4302      7400
 4303              	.LASF5:
 4304 04f2 73686F72 		.ascii	"short int\000"
 4304      7420696E 
 4304      7400
 4305              	.LASF43:
 4306 04fc 705F7072 		.ascii	"p_preempt\000"
 4306      65656D70 
 4306      7400
ARM GAS  /tmp/ccnagQWr.s 			page 81


 4307              	.LASF73:
 4308 0506 65776D61 		.ascii	"ewmask\000"
 4308      736B00
 4309              	.LASF32:
 4310 050d 705F6E65 		.ascii	"p_next\000"
 4310      787400
 4311              	.LASF41:
 4312 0514 705F666C 		.ascii	"p_flags\000"
 4312      61677300 
 4313              	.LASF64:
 4314 051c 656C5F6E 		.ascii	"el_next\000"
 4314      65787400 
 4315              	.LASF97:
 4316 0524 53445F53 		.ascii	"SD_STOP\000"
 4316      544F5000 
 4317              	.LASF31:
 4318 052c 54687265 		.ascii	"Thread\000"
 4318      616400
 4319              	.LASF48:
 4320 0533 705F6570 		.ascii	"p_epending\000"
 4320      656E6469 
 4320      6E6700
 4321              	.LASF96:
 4322 053e 53445F55 		.ascii	"SD_UNINIT\000"
 4322      4E494E49 
 4322      5400
 4323              	.LASF92:
 4324 0548 52455345 		.ascii	"RESERVED5\000"
 4324      52564544 
 4324      3500
 4325              	.LASF18:
 4326 0552 75696E74 		.ascii	"uint32_t\000"
 4326      33325F74 
 4326      00
 4327              	.LASF99:
 4328 055b 73647374 		.ascii	"sdstate_t\000"
 4328      6174655F 
 4328      7400
 4329              	.LASF100:
 4330 0565 53657269 		.ascii	"SerialDriver\000"
 4330      616C4472 
 4330      69766572 
 4330      00
 4331              	.LASF11:
 4332 0572 6C6F6E67 		.ascii	"long unsigned int\000"
 4332      20756E73 
 4332      69676E65 
 4332      6420696E 
 4332      7400
 4333              	.LASF110:
 4334 0584 72656164 		.ascii	"read\000"
 4334      00
 4335              	.LASF74:
 4336 0589 63686172 		.ascii	"char\000"
 4336      00
 4337              	.LASF124:
 4338 058e 7364496E 		.ascii	"sdIncomingDataI\000"
ARM GAS  /tmp/ccnagQWr.s 			page 82


 4338      636F6D69 
 4338      6E674461 
 4338      74614900 
 4339              	.LASF122:
 4340 059e 636F6E66 		.ascii	"config\000"
 4340      696700
 4341              	.LASF121:
 4342 05a5 73645374 		.ascii	"sdStart\000"
 4342      61727400 
 4343              	.LASF6:
 4344 05ad 5F5F7569 		.ascii	"__uint16_t\000"
 4344      6E743136 
 4344      5F7400
 4345              	.LASF62:
 4346 05b8 6D5F6E65 		.ascii	"m_next\000"
 4346      787400
 4347              	.LASF30:
 4348 05bf 73797374 		.ascii	"systime_t\000"
 4348      696D655F 
 4348      7400
 4349              	.LASF50:
 4350 05c9 705F7265 		.ascii	"p_realprio\000"
 4350      616C7072 
 4350      696F00
 4351              	.LASF8:
 4352 05d4 5F5F696E 		.ascii	"__int32_t\000"
 4352      7433325F 
 4352      7400
 4353              	.LASF137:
 4354 05de 63684F51 		.ascii	"chOQResetI\000"
 4354      52657365 
 4354      744900
 4355              	.LASF57:
 4356 05e9 636F6E74 		.ascii	"context\000"
 4356      65787400 
 4357              	.LASF56:
 4358 05f1 696E7463 		.ascii	"intctx\000"
 4358      747800
 4359              	.LASF98:
 4360 05f8 53445F52 		.ascii	"SD_READY\000"
 4360      45414459 
 4360      00
 4361              	.LASF29:
 4362 0601 666C6167 		.ascii	"flagsmask_t\000"
 4362      736D6173 
 4362      6B5F7400 
 4363              	.LASF79:
 4364 060d 715F746F 		.ascii	"q_top\000"
 4364      7000
 4365              	.LASF38:
 4366 0613 705F6E61 		.ascii	"p_name\000"
 4366      6D6500
 4367              	.LASF69:
 4368 061a 65735F6E 		.ascii	"es_next\000"
 4368      65787400 
 4369              	.LASF82:
 4370 0622 715F6E6F 		.ascii	"q_notify\000"
ARM GAS  /tmp/ccnagQWr.s 			page 83


 4370      74696679 
 4370      00
 4371              	.LASF147:
 4372 062b 73645265 		.ascii	"sdRequestDataI\000"
 4372      71756573 
 4372      74446174 
 4372      614900
 4373              	.LASF15:
 4374 063a 75696E74 		.ascii	"uint8_t\000"
 4374      385F7400 
 4375              	.LASF120:
 4376 0642 6F6E6F74 		.ascii	"onotify\000"
 4376      69667900 
 4377              	.LASF63:
 4378 064a 4576656E 		.ascii	"EventListener\000"
 4378      744C6973 
 4378      74656E65 
 4378      7200
 4379              	.LASF72:
 4380 0658 77746F62 		.ascii	"wtobjp\000"
 4380      6A7000
 4381              	.LASF47:
 4382 065f 705F6D73 		.ascii	"p_msg\000"
 4382      6700
 4383              	.LASF136:
 4384 0665 73645F6C 		.ascii	"sd_lld_stop\000"
 4384      6C645F73 
 4384      746F7000 
 4385              	.LASF116:
 4386 0671 74696D65 		.ascii	"timeout\000"
 4386      6F757400 
 4387              	.LASF117:
 4388 0679 7364496E 		.ascii	"sdInit\000"
 4388      697400
 4389              	.LASF129:
 4390 0680 63684951 		.ascii	"chIQInit\000"
 4390      496E6974 
 4390      00
 4391              	.LASF145:
 4392 0689 2E2E2F2E 		.ascii	"../../../os/hal/src/serial.c\000"
 4392      2E2F2E2E 
 4392      2F6F732F 
 4392      68616C2F 
 4392      7372632F 
 4393              	.LASF61:
 4394 06a6 6D5F6F77 		.ascii	"m_owner\000"
 4394      6E657200 
 4395              	.LASF35:
 4396 06ae 705F6374 		.ascii	"p_ctx\000"
 4396      7800
 4397              	.LASF45:
 4398 06b4 705F7761 		.ascii	"p_waiting\000"
 4398      6974696E 
 4398      6700
 4399              	.LASF127:
 4400 06be 63684951 		.ascii	"chIQGetTimeout\000"
 4400      47657454 
ARM GAS  /tmp/ccnagQWr.s 			page 84


 4400      696D656F 
 4400      757400
 4401              		.ident	"GCC: (Arch Repository) 4.9.2 20150128 (prerelease)"
ARM GAS  /tmp/ccnagQWr.s 			page 85


DEFINED SYMBOLS
                            *ABS*:0000000000000000 serial.c
     /tmp/ccnagQWr.s:19     .text.readt:0000000000000000 $t
     /tmp/ccnagQWr.s:24     .text.readt:0000000000000000 readt
     /tmp/ccnagQWr.s:42     .text.read:0000000000000000 $t
     /tmp/ccnagQWr.s:47     .text.read:0000000000000000 read
     /tmp/ccnagQWr.s:65     .text.writet:0000000000000000 $t
     /tmp/ccnagQWr.s:70     .text.writet:0000000000000000 writet
     /tmp/ccnagQWr.s:87     .text.write:0000000000000000 $t
     /tmp/ccnagQWr.s:92     .text.write:0000000000000000 write
     /tmp/ccnagQWr.s:110    .text.gett:0000000000000000 $t
     /tmp/ccnagQWr.s:115    .text.gett:0000000000000000 gett
     /tmp/ccnagQWr.s:132    .text.get:0000000000000000 $t
     /tmp/ccnagQWr.s:137    .text.get:0000000000000000 get
     /tmp/ccnagQWr.s:155    .text.putt:0000000000000000 $t
     /tmp/ccnagQWr.s:160    .text.putt:0000000000000000 putt
     /tmp/ccnagQWr.s:177    .text.put:0000000000000000 $t
     /tmp/ccnagQWr.s:182    .text.put:0000000000000000 put
     /tmp/ccnagQWr.s:200    .text.sdInit:0000000000000000 $t
     /tmp/ccnagQWr.s:206    .text.sdInit:0000000000000000 sdInit
     /tmp/ccnagQWr.s:220    .text.sdObjectInit:0000000000000000 $t
     /tmp/ccnagQWr.s:226    .text.sdObjectInit:0000000000000000 sdObjectInit
     /tmp/ccnagQWr.s:285    .text.sdObjectInit:000000000000003c $d
     /tmp/ccnagQWr.s:290    .text.sdStart:0000000000000000 $t
     /tmp/ccnagQWr.s:296    .text.sdStart:0000000000000000 sdStart
     /tmp/ccnagQWr.s:366    .text.sdStart:0000000000000040 $d
     /tmp/ccnagQWr.s:372    .text.sdStop:0000000000000000 $t
     /tmp/ccnagQWr.s:378    .text.sdStop:0000000000000000 sdStop
     /tmp/ccnagQWr.s:454    .text.sdStop:0000000000000050 $d
     /tmp/ccnagQWr.s:460    .text.sdIncomingDataI:0000000000000000 $t
     /tmp/ccnagQWr.s:466    .text.sdIncomingDataI:0000000000000000 sdIncomingDataI
     /tmp/ccnagQWr.s:540    .text.sdIncomingDataI:000000000000004c $d
     /tmp/ccnagQWr.s:545    .text.sdRequestDataI:0000000000000000 $t
     /tmp/ccnagQWr.s:551    .text.sdRequestDataI:0000000000000000 sdRequestDataI
     /tmp/ccnagQWr.s:603    .text.sdRequestDataI:0000000000000030 $d
     /tmp/ccnagQWr.s:608    .rodata.str1.4:0000000000000000 $d
     /tmp/ccnagQWr.s:625    .rodata.vmt:0000000000000000 $d
     /tmp/ccnagQWr.s:629    .rodata.vmt:0000000000000000 vmt
                     .debug_frame:0000000000000010 $d
     /tmp/ccnagQWr.s:371    .text.sdStart:0000000000000048 $t
     /tmp/ccnagQWr.s:459    .text.sdStop:0000000000000058 $t
     /tmp/ccnagQWr.s:607    .text.sdRequestDataI:0000000000000034 $t

UNDEFINED SYMBOLS
chIQReadTimeout
chOQWriteTimeout
chIQGetTimeout
chOQPutTimeout
sd_lld_init
chIQInit
chOQInit
dbg_check_lock
chDbgPanic
sd_lld_start
dbg_check_unlock
sd_lld_stop
chOQResetI
ARM GAS  /tmp/ccnagQWr.s 			page 86


chIQResetI
chSchRescheduleS
chDbgCheckClassI
chIQPutI
chEvtBroadcastFlagsI
chOQGetI
