ARM GAS  /tmp/ccnagQWr.s 			page 1


   1              		.syntax unified
   2              		.cpu cortex-m4
   3              		.fpu softvfp
   4              		.eabi_attribute 20, 1
   5              		.eabi_attribute 21, 1
   6              		.eabi_attribute 23, 3
   7              		.eabi_attribute 24, 1
   8              		.eabi_attribute 25, 1
   9              		.eabi_attribute 26, 1
  10              		.eabi_attribute 30, 2
  11              		.eabi_attribute 34, 1
  12              		.eabi_attribute 18, 4
  13              		.thumb
  14              		.file	"serial.c"
  15              		.text
  16              	.Ltext0:
  17              		.cfi_sections	.debug_frame
  18              		.section	.text.readt,"ax",%progbits
  19              		.align	2
  20              		.p2align 4,,15
  21              		.thumb
  22              		.thumb_func
  23              		.type	readt, %function
  24              	readt:
  25              	.LFB125:
  26              		.file 1 "../../../os/hal/src/serial.c"
  27              		.loc 1 99 0
  28              		.cfi_startproc
  29              		@ args = 0, pretend = 0, frame = 0
  30              		@ frame_needed = 0, uses_anonymous_args = 0
  31              		@ link register save eliminated.
  32              	.LVL0:
  33              		.loc 1 101 0
  34 0000 0C30     		adds	r0, r0, #12
  35              	.LVL1:
  36 0002 FFF7FEBF 		b	chIQReadTimeout
  37              	.LVL2:
  38              		.cfi_endproc
  39              	.LFE125:
  40              		.size	readt, .-readt
  41 0006 00BFAFF3 		.section	.text.read,"ax",%progbits
  41      0080AFF3 
  41      0080
  42              		.align	2
  43              		.p2align 4,,15
  44              		.thumb
  45              		.thumb_func
  46              		.type	read, %function
  47              	read:
  48              	.LFB119:
  49              		.loc 1 68 0
  50              		.cfi_startproc
  51              		@ args = 0, pretend = 0, frame = 0
  52              		@ frame_needed = 0, uses_anonymous_args = 0
  53              		@ link register save eliminated.
  54              	.LVL3:
  55              		.loc 1 70 0
ARM GAS  /tmp/ccnagQWr.s 			page 2


  56 0000 0C30     		adds	r0, r0, #12
  57              	.LVL4:
  58 0002 4FF0FF33 		mov	r3, #-1
  59 0006 FFF7FEBF 		b	chIQReadTimeout
  60              	.LVL5:
  61              		.cfi_endproc
  62              	.LFE119:
  63              		.size	read, .-read
  64 000a 00BFAFF3 		.section	.text.writet,"ax",%progbits
  64      0080
  65              		.align	2
  66              		.p2align 4,,15
  67              		.thumb
  68              		.thumb_func
  69              		.type	writet, %function
  70              	writet:
  71              	.LFB124:
  72              		.loc 1 94 0
  73              		.cfi_startproc
  74              		@ args = 0, pretend = 0, frame = 0
  75              		@ frame_needed = 0, uses_anonymous_args = 0
  76              		@ link register save eliminated.
  77              	.LVL6:
  78              		.loc 1 96 0
  79 0000 3030     		adds	r0, r0, #48
  80              	.LVL7:
  81 0002 FFF7FEBF 		b	chOQWriteTimeout
  82              	.LVL8:
  83              		.cfi_endproc
  84              	.LFE124:
  85              		.size	writet, .-writet
  86 0006 00BFAFF3 		.section	.text.write,"ax",%progbits
  86      0080AFF3 
  86      0080
  87              		.align	2
  88              		.p2align 4,,15
  89              		.thumb
  90              		.thumb_func
  91              		.type	write, %function
  92              	write:
  93              	.LFB118:
  94              		.loc 1 62 0
  95              		.cfi_startproc
  96              		@ args = 0, pretend = 0, frame = 0
  97              		@ frame_needed = 0, uses_anonymous_args = 0
  98              		@ link register save eliminated.
  99              	.LVL9:
 100              		.loc 1 64 0
 101 0000 3030     		adds	r0, r0, #48
 102              	.LVL10:
 103 0002 4FF0FF33 		mov	r3, #-1
 104 0006 FFF7FEBF 		b	chOQWriteTimeout
 105              	.LVL11:
 106              		.cfi_endproc
 107              	.LFE118:
 108              		.size	write, .-write
 109 000a 00BFAFF3 		.section	.text.gett,"ax",%progbits
ARM GAS  /tmp/ccnagQWr.s 			page 3


 109      0080
 110              		.align	2
 111              		.p2align 4,,15
 112              		.thumb
 113              		.thumb_func
 114              		.type	gett, %function
 115              	gett:
 116              	.LFB123:
 117              		.loc 1 89 0
 118              		.cfi_startproc
 119              		@ args = 0, pretend = 0, frame = 0
 120              		@ frame_needed = 0, uses_anonymous_args = 0
 121              		@ link register save eliminated.
 122              	.LVL12:
 123              		.loc 1 91 0
 124 0000 0C30     		adds	r0, r0, #12
 125              	.LVL13:
 126 0002 FFF7FEBF 		b	chIQGetTimeout
 127              	.LVL14:
 128              		.cfi_endproc
 129              	.LFE123:
 130              		.size	gett, .-gett
 131 0006 00BFAFF3 		.section	.text.get,"ax",%progbits
 131      0080AFF3 
 131      0080
 132              		.align	2
 133              		.p2align 4,,15
 134              		.thumb
 135              		.thumb_func
 136              		.type	get, %function
 137              	get:
 138              	.LFB121:
 139              		.loc 1 79 0
 140              		.cfi_startproc
 141              		@ args = 0, pretend = 0, frame = 0
 142              		@ frame_needed = 0, uses_anonymous_args = 0
 143              		@ link register save eliminated.
 144              	.LVL15:
 145              		.loc 1 81 0
 146 0000 0C30     		adds	r0, r0, #12
 147              	.LVL16:
 148 0002 4FF0FF31 		mov	r1, #-1
 149 0006 FFF7FEBF 		b	chIQGetTimeout
 150              	.LVL17:
 151              		.cfi_endproc
 152              	.LFE121:
 153              		.size	get, .-get
 154 000a 00BFAFF3 		.section	.text.putt,"ax",%progbits
 154      0080
 155              		.align	2
 156              		.p2align 4,,15
 157              		.thumb
 158              		.thumb_func
 159              		.type	putt, %function
 160              	putt:
 161              	.LFB122:
 162              		.loc 1 84 0
ARM GAS  /tmp/ccnagQWr.s 			page 4


 163              		.cfi_startproc
 164              		@ args = 0, pretend = 0, frame = 0
 165              		@ frame_needed = 0, uses_anonymous_args = 0
 166              		@ link register save eliminated.
 167              	.LVL18:
 168              		.loc 1 86 0
 169 0000 3030     		adds	r0, r0, #48
 170              	.LVL19:
 171 0002 FFF7FEBF 		b	chOQPutTimeout
 172              	.LVL20:
 173              		.cfi_endproc
 174              	.LFE122:
 175              		.size	putt, .-putt
 176 0006 00BFAFF3 		.section	.text.put,"ax",%progbits
 176      0080AFF3 
 176      0080
 177              		.align	2
 178              		.p2align 4,,15
 179              		.thumb
 180              		.thumb_func
 181              		.type	put, %function
 182              	put:
 183              	.LFB120:
 184              		.loc 1 74 0
 185              		.cfi_startproc
 186              		@ args = 0, pretend = 0, frame = 0
 187              		@ frame_needed = 0, uses_anonymous_args = 0
 188              		@ link register save eliminated.
 189              	.LVL21:
 190              		.loc 1 76 0
 191 0000 3030     		adds	r0, r0, #48
 192              	.LVL22:
 193 0002 4FF0FF32 		mov	r2, #-1
 194 0006 FFF7FEBF 		b	chOQPutTimeout
 195              	.LVL23:
 196              		.cfi_endproc
 197              	.LFE120:
 198              		.size	put, .-put
 199 000a 00BFAFF3 		.section	.text.sdInit,"ax",%progbits
 199      0080
 200              		.align	2
 201              		.p2align 4,,15
 202              		.global	sdInit
 203              		.thumb
 204              		.thumb_func
 205              		.type	sdInit, %function
 206              	sdInit:
 207              	.LFB126:
 208              		.loc 1 120 0
 209              		.cfi_startproc
 210              		@ args = 0, pretend = 0, frame = 0
 211              		@ frame_needed = 0, uses_anonymous_args = 0
 212              		@ link register save eliminated.
 213              		.loc 1 122 0
 214 0000 FFF7FEBF 		b	sd_lld_init
 215              	.LVL24:
 216              		.cfi_endproc
ARM GAS  /tmp/ccnagQWr.s 			page 5


 217              	.LFE126:
 218              		.size	sdInit, .-sdInit
 219 0004 AFF30080 		.section	.text.sdObjectInit,"ax",%progbits
 219      AFF30080 
 219      AFF30080 
 220              		.align	2
 221              		.p2align 4,,15
 222              		.global	sdObjectInit
 223              		.thumb
 224              		.thumb_func
 225              		.type	sdObjectInit, %function
 226              	sdObjectInit:
 227              	.LFB127:
 228              		.loc 1 140 0
 229              		.cfi_startproc
 230              		@ args = 0, pretend = 0, frame = 0
 231              		@ frame_needed = 0, uses_anonymous_args = 0
 232              	.LVL25:
 233 0000 70B5     		push	{r4, r5, r6, lr}
 234              		.cfi_def_cfa_offset 16
 235              		.cfi_offset 4, -16
 236              		.cfi_offset 5, -12
 237              		.cfi_offset 6, -8
 238              		.cfi_offset 14, -4
 239              		.loc 1 142 0
 240 0002 0E4B     		ldr	r3, .L12
 241              		.loc 1 140 0
 242 0004 0446     		mov	r4, r0
 243 0006 82B0     		sub	sp, sp, #8
 244              		.cfi_def_cfa_offset 24
 245              		.loc 1 142 0
 246 0008 40F8043B 		str	r3, [r0], #4
 247              	.LVL26:
 248              		.loc 1 144 0
 249 000c 0126     		movs	r6, #1
 250              		.loc 1 145 0
 251 000e 0094     		str	r4, [sp]
 252              		.loc 1 140 0
 253 0010 0B46     		mov	r3, r1
 254 0012 1546     		mov	r5, r2
 255              		.loc 1 143 0
 256 0014 6060     		str	r0, [r4, #4]
 257              		.loc 1 145 0
 258 0016 04F15401 		add	r1, r4, #84
 259              	.LVL27:
 260 001a 04F10C00 		add	r0, r4, #12
 261              		.loc 1 144 0
 262 001e 2672     		strb	r6, [r4, #8]
 263              		.loc 1 145 0
 264 0020 1022     		movs	r2, #16
 265              	.LVL28:
 266 0022 FFF7FEFF 		bl	chIQInit
 267              	.LVL29:
 268              		.loc 1 146 0
 269 0026 0094     		str	r4, [sp]
 270 0028 2B46     		mov	r3, r5
 271 002a 04F13000 		add	r0, r4, #48
ARM GAS  /tmp/ccnagQWr.s 			page 6


 272 002e 04F16401 		add	r1, r4, #100
 273 0032 1022     		movs	r2, #16
 274 0034 FFF7FEFF 		bl	chOQInit
 275              	.LVL30:
 276              		.loc 1 147 0
 277 0038 02B0     		add	sp, sp, #8
 278              		.cfi_def_cfa_offset 16
 279              		@ sp needed
 280 003a 70BD     		pop	{r4, r5, r6, pc}
 281              	.LVL31:
 282              	.L13:
 283              		.align	2
 284              	.L12:
 285 003c 00000000 		.word	.LANCHOR0
 286              		.cfi_endproc
 287              	.LFE127:
 288              		.size	sdObjectInit, .-sdObjectInit
 289              		.section	.text.sdStart,"ax",%progbits
 290              		.align	2
 291              		.p2align 4,,15
 292              		.global	sdStart
 293              		.thumb
 294              		.thumb_func
 295              		.type	sdStart, %function
 296              	sdStart:
 297              	.LFB128:
 298              		.loc 1 159 0
 299              		.cfi_startproc
 300              		@ args = 0, pretend = 0, frame = 0
 301              		@ frame_needed = 0, uses_anonymous_args = 0
 302              	.LVL32:
 303 0000 38B5     		push	{r3, r4, r5, lr}
 304              		.cfi_def_cfa_offset 16
 305              		.cfi_offset 3, -16
 306              		.cfi_offset 4, -12
 307              		.cfi_offset 5, -8
 308              		.cfi_offset 14, -4
 309              		.loc 1 159 0
 310 0002 0D46     		mov	r5, r1
 311              		.loc 1 161 0
 312 0004 0446     		mov	r4, r0
 313 0006 B8B1     		cbz	r0, .L19
 314              	.LVL33:
 315              	.L15:
 316              	.LBB2:
 317              		.loc 1 163 0
 318 0008 2023     		movs	r3, #32
 319              	@ 163 "../../../os/hal/src/serial.c" 1
 320 000a 83F31188 		msr     BASEPRI, r3
 321              	@ 0 "" 2
 322              		.thumb
 323              	.LBE2:
 324 000e FFF7FEFF 		bl	dbg_check_lock
 325              	.LVL34:
 326              		.loc 1 164 0
 327 0012 237A     		ldrb	r3, [r4, #8]	@ zero_extendqisi2
 328 0014 013B     		subs	r3, r3, #1
ARM GAS  /tmp/ccnagQWr.s 			page 7


 329 0016 012B     		cmp	r3, #1
 330 0018 02D9     		bls	.L16
 331              		.loc 1 164 0 is_stmt 0 discriminator 1
 332 001a 0948     		ldr	r0, .L20
 333 001c FFF7FEFF 		bl	chDbgPanic
 334              	.LVL35:
 335              	.L16:
 336              		.loc 1 167 0 is_stmt 1
 337 0020 2946     		mov	r1, r5
 338 0022 2046     		mov	r0, r4
 339 0024 FFF7FEFF 		bl	sd_lld_start
 340              	.LVL36:
 341              		.loc 1 168 0
 342 0028 0223     		movs	r3, #2
 343 002a 2372     		strb	r3, [r4, #8]
 344              		.loc 1 169 0
 345 002c FFF7FEFF 		bl	dbg_check_unlock
 346              	.LVL37:
 347              	.LBB3:
 348 0030 0023     		movs	r3, #0
 349              	@ 169 "../../../os/hal/src/serial.c" 1
 350 0032 83F31188 		msr     BASEPRI, r3
 351              	@ 0 "" 2
 352              		.thumb
 353 0036 38BD     		pop	{r3, r4, r5, pc}
 354              	.LVL38:
 355              	.L19:
 356              	.LBE3:
 357              		.loc 1 161 0 discriminator 1
 358 0038 0248     		ldr	r0, .L20+4
 359              	.LVL39:
 360 003a FFF7FEFF 		bl	chDbgPanic
 361              	.LVL40:
 362 003e E3E7     		b	.L15
 363              	.L21:
 364              		.align	2
 365              	.L20:
 366 0040 0C000000 		.word	.LC1
 367 0044 00000000 		.word	.LC0
 368              		.cfi_endproc
 369              	.LFE128:
 370              		.size	sdStart, .-sdStart
 371 0048 AFF30080 		.section	.text.sdStop,"ax",%progbits
 371      AFF30080 
 372              		.align	2
 373              		.p2align 4,,15
 374              		.global	sdStop
 375              		.thumb
 376              		.thumb_func
 377              		.type	sdStop, %function
 378              	sdStop:
 379              	.LFB129:
 380              		.loc 1 181 0
 381              		.cfi_startproc
 382              		@ args = 0, pretend = 0, frame = 0
 383              		@ frame_needed = 0, uses_anonymous_args = 0
 384              	.LVL41:
ARM GAS  /tmp/ccnagQWr.s 			page 8


 385 0000 10B5     		push	{r4, lr}
 386              		.cfi_def_cfa_offset 8
 387              		.cfi_offset 4, -8
 388              		.cfi_offset 14, -4
 389              		.loc 1 183 0
 390 0002 0446     		mov	r4, r0
 391 0004 00B3     		cbz	r0, .L26
 392              	.LVL42:
 393              	.L23:
 394              	.LBB4:
 395              		.loc 1 185 0
 396 0006 2023     		movs	r3, #32
 397              	@ 185 "../../../os/hal/src/serial.c" 1
 398 0008 83F31188 		msr     BASEPRI, r3
 399              	@ 0 "" 2
 400              		.thumb
 401              	.LBE4:
 402 000c FFF7FEFF 		bl	dbg_check_lock
 403              	.LVL43:
 404              		.loc 1 186 0
 405 0010 237A     		ldrb	r3, [r4, #8]	@ zero_extendqisi2
 406 0012 013B     		subs	r3, r3, #1
 407 0014 012B     		cmp	r3, #1
 408 0016 02D9     		bls	.L24
 409              		.loc 1 186 0 is_stmt 0 discriminator 1
 410 0018 0D48     		ldr	r0, .L27
 411 001a FFF7FEFF 		bl	chDbgPanic
 412              	.LVL44:
 413              	.L24:
 414              		.loc 1 189 0 is_stmt 1
 415 001e 2046     		mov	r0, r4
 416 0020 FFF7FEFF 		bl	sd_lld_stop
 417              	.LVL45:
 418              		.loc 1 190 0
 419 0024 0123     		movs	r3, #1
 420 0026 2372     		strb	r3, [r4, #8]
 421              		.loc 1 191 0
 422 0028 04F13000 		add	r0, r4, #48
 423 002c FFF7FEFF 		bl	chOQResetI
 424              	.LVL46:
 425              		.loc 1 192 0
 426 0030 04F10C00 		add	r0, r4, #12
 427 0034 FFF7FEFF 		bl	chIQResetI
 428              	.LVL47:
 429              		.loc 1 193 0
 430 0038 FFF7FEFF 		bl	chSchRescheduleS
 431              	.LVL48:
 432              		.loc 1 194 0
 433 003c FFF7FEFF 		bl	dbg_check_unlock
 434              	.LVL49:
 435              	.LBB5:
 436 0040 0023     		movs	r3, #0
 437              	@ 194 "../../../os/hal/src/serial.c" 1
 438 0042 83F31188 		msr     BASEPRI, r3
 439              	@ 0 "" 2
 440              		.thumb
 441 0046 10BD     		pop	{r4, pc}
ARM GAS  /tmp/ccnagQWr.s 			page 9


 442              	.LVL50:
 443              	.L26:
 444              	.LBE5:
 445              		.loc 1 183 0 discriminator 1
 446 0048 0248     		ldr	r0, .L27+4
 447              	.LVL51:
 448 004a FFF7FEFF 		bl	chDbgPanic
 449              	.LVL52:
 450 004e DAE7     		b	.L23
 451              	.L28:
 452              		.align	2
 453              	.L27:
 454 0050 28000000 		.word	.LC3
 455 0054 1C000000 		.word	.LC2
 456              		.cfi_endproc
 457              	.LFE129:
 458              		.size	sdStop, .-sdStop
 459 0058 AFF30080 		.section	.text.sdIncomingDataI,"ax",%progbits
 459      AFF30080 
 460              		.align	2
 461              		.p2align 4,,15
 462              		.global	sdIncomingDataI
 463              		.thumb
 464              		.thumb_func
 465              		.type	sdIncomingDataI, %function
 466              	sdIncomingDataI:
 467              	.LFB130:
 468              		.loc 1 213 0
 469              		.cfi_startproc
 470              		@ args = 0, pretend = 0, frame = 0
 471              		@ frame_needed = 0, uses_anonymous_args = 0
 472              	.LVL53:
 473 0000 38B5     		push	{r3, r4, r5, lr}
 474              		.cfi_def_cfa_offset 16
 475              		.cfi_offset 3, -16
 476              		.cfi_offset 4, -12
 477              		.cfi_offset 5, -8
 478              		.cfi_offset 14, -4
 479              		.loc 1 213 0
 480 0002 0446     		mov	r4, r0
 481 0004 0D46     		mov	r5, r1
 482              		.loc 1 215 0
 483 0006 FFF7FEFF 		bl	chDbgCheckClassI
 484              	.LVL54:
 485              		.loc 1 216 0
 486 000a D4B1     		cbz	r4, .L34
 487              	.L30:
 488              		.loc 1 218 0
 489 000c 6369     		ldr	r3, [r4, #20]
 490 000e 3BB1     		cbz	r3, .L35
 491              		.loc 1 220 0
 492 0010 2946     		mov	r1, r5
 493 0012 04F10C00 		add	r0, r4, #12
 494 0016 FFF7FEFF 		bl	chIQPutI
 495              	.LVL55:
 496 001a 0028     		cmp	r0, #0
 497 001c 0BDB     		blt	.L36
ARM GAS  /tmp/ccnagQWr.s 			page 10


 498              	.L29:
 499 001e 38BD     		pop	{r3, r4, r5, pc}
 500              	.LVL56:
 501              	.L35:
 502              		.loc 1 219 0
 503 0020 201D     		adds	r0, r4, #4
 504 0022 0421     		movs	r1, #4
 505 0024 FFF7FEFF 		bl	chEvtBroadcastFlagsI
 506              	.LVL57:
 507              		.loc 1 220 0
 508 0028 2946     		mov	r1, r5
 509 002a 04F10C00 		add	r0, r4, #12
 510 002e FFF7FEFF 		bl	chIQPutI
 511              	.LVL58:
 512 0032 0028     		cmp	r0, #0
 513 0034 F3DA     		bge	.L29
 514              	.L36:
 515              		.loc 1 221 0
 516 0036 201D     		adds	r0, r4, #4
 517 0038 8021     		movs	r1, #128
 518              		.loc 1 222 0
 519 003a BDE83840 		pop	{r3, r4, r5, lr}
 520              		.cfi_remember_state
 521              		.cfi_restore 14
 522              		.cfi_restore 5
 523              		.cfi_restore 4
 524              		.cfi_restore 3
 525              		.cfi_def_cfa_offset 0
 526              	.LVL59:
 527              		.loc 1 221 0
 528 003e FFF7FEBF 		b	chEvtBroadcastFlagsI
 529              	.LVL60:
 530              	.L34:
 531              		.cfi_restore_state
 532              		.loc 1 216 0 discriminator 1
 533 0042 0248     		ldr	r0, .L37
 534 0044 FFF7FEFF 		bl	chDbgPanic
 535              	.LVL61:
 536 0048 E0E7     		b	.L30
 537              	.L38:
 538 004a 00BF     		.align	2
 539              	.L37:
 540 004c 38000000 		.word	.LC4
 541              		.cfi_endproc
 542              	.LFE130:
 543              		.size	sdIncomingDataI, .-sdIncomingDataI
 544              		.section	.text.sdRequestDataI,"ax",%progbits
 545              		.align	2
 546              		.p2align 4,,15
 547              		.global	sdRequestDataI
 548              		.thumb
 549              		.thumb_func
 550              		.type	sdRequestDataI, %function
 551              	sdRequestDataI:
 552              	.LFB131:
 553              		.loc 1 239 0
 554              		.cfi_startproc
ARM GAS  /tmp/ccnagQWr.s 			page 11


 555              		@ args = 0, pretend = 0, frame = 0
 556              		@ frame_needed = 0, uses_anonymous_args = 0
 557              	.LVL62:
 558 0000 38B5     		push	{r3, r4, r5, lr}
 559              		.cfi_def_cfa_offset 16
 560              		.cfi_offset 3, -16
 561              		.cfi_offset 4, -12
 562              		.cfi_offset 5, -8
 563              		.cfi_offset 14, -4
 564              		.loc 1 239 0
 565 0002 0446     		mov	r4, r0
 566              		.loc 1 242 0
 567 0004 FFF7FEFF 		bl	chDbgCheckClassI
 568              	.LVL63:
 569              		.loc 1 243 0
 570 0008 6CB1     		cbz	r4, .L43
 571              	.L40:
 572              		.loc 1 245 0
 573 000a 04F13000 		add	r0, r4, #48
 574 000e FFF7FEFF 		bl	chOQGetI
 575              	.LVL64:
 576              		.loc 1 246 0
 577 0012 051E     		subs	r5, r0, #0
 578 0014 01DB     		blt	.L44
 579              		.loc 1 249 0
 580 0016 2846     		mov	r0, r5
 581 0018 38BD     		pop	{r3, r4, r5, pc}
 582              	.LVL65:
 583              	.L44:
 584              		.loc 1 247 0
 585 001a 201D     		adds	r0, r4, #4
 586              	.LVL66:
 587 001c 0821     		movs	r1, #8
 588 001e FFF7FEFF 		bl	chEvtBroadcastFlagsI
 589              	.LVL67:
 590              		.loc 1 249 0
 591 0022 2846     		mov	r0, r5
 592 0024 38BD     		pop	{r3, r4, r5, pc}
 593              	.LVL68:
 594              	.L43:
 595              		.loc 1 243 0 discriminator 1
 596 0026 0248     		ldr	r0, .L45
 597 0028 FFF7FEFF 		bl	chDbgPanic
 598              	.LVL69:
 599 002c EDE7     		b	.L40
 600              	.L46:
 601 002e 00BF     		.align	2
 602              	.L45:
 603 0030 4C000000 		.word	.LC5
 604              		.cfi_endproc
 605              	.LFE131:
 606              		.size	sdRequestDataI, .-sdRequestDataI
 607 0034 AFF30080 		.section	.rodata.str1.4,"aMS",%progbits,1
 607      AFF30080 
 607      AFF30080 
 608              		.align	2
 609              	.LC0:
ARM GAS  /tmp/ccnagQWr.s 			page 12


 610 0000 22736453 		.ascii	"\"sdStart\"()\000"
 610      74617274 
 610      22282900 
 611              	.LC1:
 612 000c 73645374 		.ascii	"sdStart(), #1\000"
 612      61727428 
 612      292C2023 
 612      3100
 613 001a 0000     		.space	2
 614              	.LC2:
 615 001c 22736453 		.ascii	"\"sdStop\"()\000"
 615      746F7022 
 615      282900
 616 0027 00       		.space	1
 617              	.LC3:
 618 0028 73645374 		.ascii	"sdStop(), #1\000"
 618      6F702829 
 618      2C202331 
 618      00
 619 0035 000000   		.space	3
 620              	.LC4:
 621 0038 22736449 		.ascii	"\"sdIncomingDataI\"()\000"
 621      6E636F6D 
 621      696E6744 
 621      61746149 
 621      22282900 
 622              	.LC5:
 623 004c 22736452 		.ascii	"\"sdRequestDataI\"()\000"
 623      65717565 
 623      73744461 
 623      74614922 
 623      282900
 624 005f 00       		.section	.rodata.vmt,"a",%progbits
 625              		.align	2
 626              		.set	.LANCHOR0,. + 0
 627              		.type	vmt, %object
 628              		.size	vmt, 32
 629              	vmt:
 630 0000 00000000 		.word	write
 631 0004 00000000 		.word	read
 632 0008 00000000 		.word	put
 633 000c 00000000 		.word	get
 634 0010 00000000 		.word	putt
 635 0014 00000000 		.word	gett
 636 0018 00000000 		.word	writet
 637 001c 00000000 		.word	readt
 638              		.text
 639              	.Letext0:
 640              		.file 2 "/usr/lib/gcc/arm-none-eabi/4.9.2/include/stddef.h"
 641              		.file 3 "/usr/arm-none-eabi/include/machine/_default_types.h"
 642              		.file 4 "/usr/arm-none-eabi/include/stdint.h"
 643              		.file 5 "../../../os/ports/GCC/ARMCMx/chtypes.h"
 644              		.file 6 "../../../os/kernel/include/chlists.h"
 645              		.file 7 "../../../os/kernel/include/chthreads.h"
 646              		.file 8 "../../../os/ports/GCC/ARMCMx/chcore_v7m.h"
 647              		.file 9 "../../../os/kernel/include/chmtx.h"
 648              		.file 10 "../../../os/kernel/include/chevents.h"
ARM GAS  /tmp/ccnagQWr.s 			page 13


 649              		.file 11 "../../../os/kernel/include/chqueues.h"
 650              		.file 12 "../../../os/hal/platforms/STM32F4xx/stm32f4xx.h"
 651              		.file 13 "../../../os/hal/include/serial.h"
 652              		.file 14 "../../../os/hal/platforms/STM32/USARTv1/serial_lld.h"
 653              		.file 15 "../../../os/kernel/include/chdebug.h"
 654              		.file 16 "../../../os/kernel/include/chschd.h"
 655              		.file 17 "../../../os/ports/common/ARMCMx/CMSIS/include/core_cm4.h"